
C:/intelFPGA_lite/18.1/Final2/main.axf:     file format elf32-littlearm


Disassembly of section .text:

00000000 <__cs3_interrupt_vector>:
       0:	18 f0 9f e5 18 f0 9f e5 18 f0 9f e5 18 f0 9f e5     ................
      10:	18 f0 9f e5 18 f0 9f e5 18 f0 9f e5 18 f0 9f e5     ................
      20:	40 00 00 00 08 be 00 00 0c be 00 00 10 be 00 00     @...............
      30:	14 be 00 00 04 be 00 00 18 be 00 00 1c be 00 00     ................

00000040 <__cs3_reset>:
      40:	ea000026 	b	e0 <__cs3_start_asm_sim>

00000044 <__cs3_start_c>:
      44:	e59f608c 	ldr	r6, [pc, #140]	; d8 <__cs3_start_c+0x94>
      48:	e3560000 	cmp	r6, #0
      4c:	e92d4080 	push	{r7, lr}
      50:	e2466001 	sub	r6, r6, #1
      54:	0a00001e 	beq	d4 <__cs3_start_c+0x90>
      58:	e59f507c 	ldr	r5, [pc, #124]	; dc <__cs3_start_c+0x98>
      5c:	e3a00000 	mov	r0, #0
      60:	e3a01000 	mov	r1, #0
      64:	e515200c 	ldr	r2, [r5, #-12]
      68:	e515e010 	ldr	lr, [r5, #-16]
      6c:	e5154008 	ldr	r4, [r5, #-8]
      70:	e15e0002 	cmp	lr, r2
      74:	00822004 	addeq	r2, r2, r4
      78:	0a000009 	beq	a4 <__cs3_start_c+0x60>
      7c:	e3540000 	cmp	r4, #0
      80:	0a000007 	beq	a4 <__cs3_start_c+0x60>
      84:	e1a07002 	mov	r7, r2
      88:	e1a0c002 	mov	r12, r2
      8c:	e8be000c 	ldm	lr!, {r2, r3}
      90:	e8ac000c 	stmia	r12!, {r2, r3}
      94:	e067300c 	rsb	r3, r7, r12
      98:	e1540003 	cmp	r4, r3
      9c:	e1a0200c 	mov	r2, r12
      a0:	1afffff9 	bne	8c <__cs3_start_c+0x48>
      a4:	e515e004 	ldr	lr, [r5, #-4]
      a8:	e35e0000 	cmp	lr, #0
      ac:	11a03002 	movne	r3, r2
      b0:	0a000003 	beq	c4 <__cs3_start_c+0x80>
      b4:	e8a30003 	stmia	r3!, {r0, r1}
      b8:	e062c003 	rsb	r12, r2, r3
      bc:	e15e000c 	cmp	lr, r12
      c0:	1afffffb 	bne	b4 <__cs3_start_c+0x70>
      c4:	e2466001 	sub	r6, r6, #1
      c8:	e3760001 	cmn	r6, #1
      cc:	e2855014 	add	r5, r5, #20
      d0:	1affffe3 	bne	64 <__cs3_start_c+0x20>
      d4:	eb002dad 	bl	b790 <__cs3_premain>
      d8:	00000001 	.word	0x00000001
      dc:	0000c0f8 	.word	0x0000c0f8

000000e0 <__cs3_start_asm_sim>:
      e0:	e28f103c 	add	r1, pc, #60	; 0x3c
      e4:	e3a00016 	mov	r0, #22
      e8:	ef123456 	svc	0x00123456
      ec:	e3500000 	cmp	r0, #0
      f0:	ba000008 	blt	118 <__cs3_region_zero_size_ram+0x8>
      f4:	e59f2028 	ldr	r2, [pc, #40]	; 124 <__cs3_heap_start_ptr>
      f8:	e59fd01c 	ldr	sp, [pc, #28]	; 11c <__cs3_region_zero_size_ram+0xc>
      fc:	e5920008 	ldr	r0, [r2, #8]
     100:	e3500000 	cmp	r0, #0
     104:	11a0d000 	movne	sp, r0
     108:	e59f1010 	ldr	r1, [pc, #16]	; 120 <__cs3_region_zero_size_ram+0x10>
     10c:	e5920004 	ldr	r0, [r2, #4]
     110:	e3500000 	cmp	r0, #0
     114:	15810000 	strne	r0, [r1]
     118:	eaffffc9 	b	44 <__cs3_start_c>
     11c:	3ffffff8 	.word	0x3ffffff8
     120:	0000c9c0 	.word	0x0000c9c0

00000124 <__cs3_heap_start_ptr>:
     124:	0000cad8 	.word	0x0000cad8

00000128 <_start>:
     128:	e51fd000 	ldr	sp, [pc, #-0]	; 130 <_start+0x8>
     12c:	eaffffc4 	b	44 <__cs3_start_c>
     130:	3ffffff8 	.word	0x3ffffff8

00000134 <deregister_tm_clones>:
     134:	e92d4008 	push	{r3, lr}
     138:	e59f002c 	ldr	r0, [pc, #44]	; 16c <deregister_tm_clones+0x38>
     13c:	e59f302c 	ldr	r3, [pc, #44]	; 170 <deregister_tm_clones+0x3c>
     140:	e0603003 	rsb	r3, r0, r3
     144:	e3530006 	cmp	r3, #6
     148:	8a000001 	bhi	154 <deregister_tm_clones+0x20>
     14c:	e8bd4008 	pop	{r3, lr}
     150:	e12fff1e 	bx	lr
     154:	e59f3018 	ldr	r3, [pc, #24]	; 174 <deregister_tm_clones+0x40>
     158:	e3530000 	cmp	r3, #0
     15c:	0afffffa 	beq	14c <deregister_tm_clones+0x18>
     160:	e1a0e00f 	mov	lr, pc
     164:	e12fff13 	bx	r3
     168:	eafffff7 	b	14c <deregister_tm_clones+0x18>
     16c:	0000c9c8 	.word	0x0000c9c8
     170:	0000c9cb 	.word	0x0000c9cb
     174:	00000000 	.word	0x00000000

00000178 <register_tm_clones>:
     178:	e92d4008 	push	{r3, lr}
     17c:	e59f0034 	ldr	r0, [pc, #52]	; 1b8 <register_tm_clones+0x40>
     180:	e59f3034 	ldr	r3, [pc, #52]	; 1bc <register_tm_clones+0x44>
     184:	e0603003 	rsb	r3, r0, r3
     188:	e1a03143 	asr	r3, r3, #2
     18c:	e0833fa3 	add	r3, r3, r3, lsr #31
     190:	e1b010c3 	asrs	r1, r3, #1
     194:	1a000001 	bne	1a0 <register_tm_clones+0x28>
     198:	e8bd4008 	pop	{r3, lr}
     19c:	e12fff1e 	bx	lr
     1a0:	e59f2018 	ldr	r2, [pc, #24]	; 1c0 <register_tm_clones+0x48>
     1a4:	e3520000 	cmp	r2, #0
     1a8:	0afffffa 	beq	198 <register_tm_clones+0x20>
     1ac:	e1a0e00f 	mov	lr, pc
     1b0:	e12fff12 	bx	r2
     1b4:	eafffff7 	b	198 <register_tm_clones+0x20>
     1b8:	0000c9c8 	.word	0x0000c9c8
     1bc:	0000c9c8 	.word	0x0000c9c8
     1c0:	00000000 	.word	0x00000000

000001c4 <__do_global_dtors_aux>:
     1c4:	e92d4010 	push	{r4, lr}
     1c8:	e59f402c 	ldr	r4, [pc, #44]	; 1fc <__do_global_dtors_aux+0x38>
     1cc:	e5d43000 	ldrb	r3, [r4]
     1d0:	e3530000 	cmp	r3, #0
     1d4:	1a000006 	bne	1f4 <__do_global_dtors_aux+0x30>
     1d8:	ebffffd5 	bl	134 <deregister_tm_clones>
     1dc:	e59f301c 	ldr	r3, [pc, #28]	; 200 <__do_global_dtors_aux+0x3c>
     1e0:	e3530000 	cmp	r3, #0
     1e4:	159f0018 	ldrne	r0, [pc, #24]	; 204 <__do_global_dtors_aux+0x40>
     1e8:	1320f000 	nopne	{0}
     1ec:	e3a03001 	mov	r3, #1
     1f0:	e5c43000 	strb	r3, [r4]
     1f4:	e8bd4010 	pop	{r4, lr}
     1f8:	e12fff1e 	bx	lr
     1fc:	0000c9c8 	.word	0x0000c9c8
     200:	00000000 	.word	0x00000000
     204:	0000beb8 	.word	0x0000beb8

00000208 <frame_dummy>:
     208:	e92d4008 	push	{r3, lr}
     20c:	e59f3034 	ldr	r3, [pc, #52]	; 248 <frame_dummy+0x40>
     210:	e3530000 	cmp	r3, #0
     214:	159f0030 	ldrne	r0, [pc, #48]	; 24c <frame_dummy+0x44>
     218:	159f1030 	ldrne	r1, [pc, #48]	; 250 <frame_dummy+0x48>
     21c:	1320f000 	nopne	{0}
     220:	e59f002c 	ldr	r0, [pc, #44]	; 254 <frame_dummy+0x4c>
     224:	e5903000 	ldr	r3, [r0]
     228:	e3530000 	cmp	r3, #0
     22c:	0a000003 	beq	240 <frame_dummy+0x38>
     230:	e59f3020 	ldr	r3, [pc, #32]	; 258 <frame_dummy+0x50>
     234:	e3530000 	cmp	r3, #0
     238:	11a0e00f 	movne	lr, pc
     23c:	112fff13 	bxne	r3
     240:	e8bd4008 	pop	{r3, lr}
     244:	eaffffcb 	b	178 <register_tm_clones>
     248:	00000000 	.word	0x00000000
     24c:	0000beb8 	.word	0x0000beb8
     250:	0000c9cc 	.word	0x0000c9cc
     254:	0000c0f8 	.word	0x0000c0f8
     258:	00000000 	.word	0x00000000

0000025c <check_KEYs>:
/****************************************************************************************
* Subroutine to read KEYs
* Carry over from example code I never deleted
* Might come in useful later otherwise delete
****************************************************************************************/
void check_KEYs(int * KEY0, int * KEY1, int * counter) {
     25c:	e52d4004 	push	{r4}		; (str r4, [sp, #-4]!)
    volatile int * KEY_ptr = (int *)KEY_BASE;
    volatile int * audio_ptr = (int *)AUDIO_BASE;
    int KEY_value;
    KEY_value = *(KEY_ptr); // read the pushbutton KEY values
     260:	e3a03000 	mov	r3, #0
     264:	e34f3f20 	movt	r3, #65312	; 0xff20
     268:	e5934050 	ldr	r4, [r3, #80]	; 0x50
    while (*KEY_ptr); // wait for pushbutton KEY release
     26c:	e3a0c000 	mov	r12, #0
     270:	e34fcf20 	movt	r12, #65312	; 0xff20
     274:	e59c3050 	ldr	r3, [r12, #80]	; 0x50
     278:	e3530000 	cmp	r3, #0
     27c:	1afffffc 	bne	274 <check_KEYs+0x18>

    if (KEY_value == 0x1) {
     280:	e3540001 	cmp	r4, #1
     284:	1a000009 	bne	2b0 <check_KEYs+0x54>
        // reset counter to start recording
        *counter = 0;
     288:	e3a01000 	mov	r1, #0
     28c:	e5821000 	str	r1, [r2]
        // clear audio-in FIFO
        *(audio_ptr) = 0x4;
     290:	e3033fff 	movw	r3, #16383	; 0x3fff
     294:	e34f3f20 	movt	r3, #65312	; 0xff20
     298:	e3a02004 	mov	r2, #4
     29c:	e5032fbf 	str	r2, [r3, #-4031]	; 0xfffff041
        *(audio_ptr) = 0x0;
     2a0:	e5031fbf 	str	r1, [r3, #-4031]	; 0xfffff041
        *KEY0 = 1;
     2a4:	e3a03001 	mov	r3, #1
     2a8:	e5803000 	str	r3, [r0]
     2ac:	ea00000a 	b	2dc <check_KEYs+0x80>
    } 
    else if (KEY_value == 0x2) {
     2b0:	e3540002 	cmp	r4, #2
     2b4:	1a000008 	bne	2dc <check_KEYs+0x80>
        // reset counter to start playback
        *counter = 0;
     2b8:	e3a00000 	mov	r0, #0
     2bc:	e5820000 	str	r0, [r2]
        // clear audio-out FIFO
        *(audio_ptr) = 0x8;
     2c0:	e3033fff 	movw	r3, #16383	; 0x3fff
     2c4:	e34f3f20 	movt	r3, #65312	; 0xff20
     2c8:	e3a02008 	mov	r2, #8
     2cc:	e5032fbf 	str	r2, [r3, #-4031]	; 0xfffff041
        *(audio_ptr) = 0x0;
     2d0:	e5030fbf 	str	r0, [r3, #-4031]	; 0xfffff041
        *KEY1 = 1;
     2d4:	e3a03001 	mov	r3, #1
     2d8:	e5813000 	str	r3, [r1]
    }
}
     2dc:	e8bd0010 	ldmfd	sp!, {r4}
     2e0:	e12fff1e 	bx	lr

000002e4 <pow_me>:

//Goddammit I need to redefine pow too
float pow_me(float in, int power) {
     2e4:	e92d4070 	push	{r4, r5, r6, lr}
     2e8:	e1a05000 	mov	r5, r0
    float out = in;

    if(power == 0) return 1;
     2ec:	e3510000 	cmp	r1, #0
     2f0:	0a000009 	beq	31c <pow_me+0x38>

    for(int i = 0; i < (power - 1); i++) {
     2f4:	e2416001 	sub	r6, r1, #1
     2f8:	e3560000 	cmp	r6, #0
     2fc:	da000008 	ble	324 <pow_me+0x40>
     300:	e3a04000 	mov	r4, #0
        out = out * in;
     304:	e1a01005 	mov	r1, r5
     308:	eb0004ef 	bl	16cc <__aeabi_fmul>
float pow_me(float in, int power) {
    float out = in;

    if(power == 0) return 1;

    for(int i = 0; i < (power - 1); i++) {
     30c:	e2844001 	add	r4, r4, #1
     310:	e1540006 	cmp	r4, r6
     314:	1afffffa 	bne	304 <pow_me+0x20>
     318:	e8bd8070 	pop	{r4, r5, r6, pc}

//Goddammit I need to redefine pow too
float pow_me(float in, int power) {
    float out = in;

    if(power == 0) return 1;
     31c:	e3a005fe 	mov	r0, #1065353216	; 0x3f800000
     320:	e8bd8070 	pop	{r4, r5, r6, pc}
    for(int i = 0; i < (power - 1); i++) {
        out = out * in;
    }

    return out;
}
     324:	e8bd8070 	pop	{r4, r5, r6, pc}

00000328 <sin_me>:

// Just a 5th order taylor series approximation, if it's too slow there are faster algorithms out there
// It's accurate enough for visual use
// I hope to figure out the STD library
// Improvement: Use BKM or CORDIC algorithms
float sin_me(float in) {
     328:	e92d4ff0 	push	{r4, r5, r6, r7, r8, r9, r10, r11, lr}
     32c:	e24dd00c 	sub	sp, sp, #12
     330:	e1a07000 	mov	r7, r0
    //First reduce the input to be between 0 and pi/2
    float quotient = in;
    float quadrant = 0;
     334:	e3a06000 	mov	r6, #0

    while((quotient - PI/2) > 0) {
     338:	e3a0a000 	mov	r10, #0
     33c:	e3a0b000 	mov	r11, #0
        quotient -= PI/2;
        quadrant += 1;
     340:	e3a095fe 	mov	r9, #1065353216	; 0x3f800000

        if(quadrant == 4) quadrant = 0;
     344:	e3a08000 	mov	r8, #0
     348:	e3448080 	movt	r8, #16512	; 0x4080
float sin_me(float in) {
    //First reduce the input to be between 0 and pi/2
    float quotient = in;
    float quadrant = 0;

    while((quotient - PI/2) > 0) {
     34c:	ea00000b 	b	380 <sin_me+0x58>
        quotient -= PI/2;
     350:	e1a00004 	mov	r0, r4
     354:	e1a01005 	mov	r1, r5
     358:	eb000408 	bl	1380 <__aeabi_d2f>
     35c:	e1a07000 	mov	r7, r0
        quadrant += 1;
     360:	e1a00006 	mov	r0, r6
     364:	e1a01009 	mov	r1, r9
     368:	eb00042f 	bl	142c <__addsf3>
     36c:	e1a06000 	mov	r6, r0

        if(quadrant == 4) quadrant = 0;
     370:	e1a01008 	mov	r1, r8
     374:	eb0005b9 	bl	1a60 <__aeabi_fcmpeq>
     378:	e3500000 	cmp	r0, #0
     37c:	13a06000 	movne	r6, #0
float sin_me(float in) {
    //First reduce the input to be between 0 and pi/2
    float quotient = in;
    float quadrant = 0;

    while((quotient - PI/2) > 0) {
     380:	e1a00007 	mov	r0, r7
     384:	eb000258 	bl	cec <__aeabi_f2d>
     388:	e1cd00f0 	strd	r0, [sp]
     38c:	e3042550 	movw	r2, #17744	; 0x4550
     390:	e3452452 	movt	r2, #21586	; 0x5452
     394:	e30231fb 	movw	r3, #8699	; 0x21fb
     398:	e3433ff9 	movt	r3, #16377	; 0x3ff9
     39c:	eb00017a 	bl	98c <__aeabi_dsub>
     3a0:	e1a04000 	mov	r4, r0
     3a4:	e1a05001 	mov	r5, r1
     3a8:	e1a0200a 	mov	r2, r10
     3ac:	e1a0300b 	mov	r3, r11
     3b0:	eb0003ec 	bl	1368 <__aeabi_dcmpgt>
     3b4:	e3500000 	cmp	r0, #0
     3b8:	1affffe4 	bne	350 <sin_me+0x28>
        quadrant += 1;

        if(quadrant == 4) quadrant = 0;
    }

    if(quadrant == 0) {
     3bc:	e1a00006 	mov	r0, r6
     3c0:	e3a01000 	mov	r1, #0
     3c4:	eb0005a5 	bl	1a60 <__aeabi_fcmpeq>
     3c8:	e3500000 	cmp	r0, #0
     3cc:	0a000013 	beq	420 <sin_me+0xf8>
        float taylor_value = quotient - (pow_me(quotient, 3) / 6) + (pow_me(quotient, 5) / 120);
     3d0:	e1a00007 	mov	r0, r7
     3d4:	e3a01003 	mov	r1, #3
     3d8:	ebffffc1 	bl	2e4 <pow_me>
     3dc:	e3a01000 	mov	r1, #0
     3e0:	e34410c0 	movt	r1, #16576	; 0x40c0
     3e4:	eb00051e 	bl	1864 <__aeabi_fdiv>
     3e8:	e1a01000 	mov	r1, r0
     3ec:	e1a00007 	mov	r0, r7
     3f0:	eb00040c 	bl	1428 <__aeabi_fsub>
     3f4:	e1a04000 	mov	r4, r0
     3f8:	e1a00007 	mov	r0, r7
     3fc:	e3a01005 	mov	r1, #5
     400:	ebffffb7 	bl	2e4 <pow_me>
     404:	e3a01000 	mov	r1, #0
     408:	e34412f0 	movt	r1, #17136	; 0x42f0
     40c:	eb000514 	bl	1864 <__aeabi_fdiv>
     410:	e1a01000 	mov	r1, r0
     414:	e1a00004 	mov	r0, r4
     418:	eb000403 	bl	142c <__addsf3>
        return taylor_value;
     41c:	ea000068 	b	5c4 <sin_me+0x29c>
    } else if(quadrant == 1) {
     420:	e1a00006 	mov	r0, r6
     424:	e3a015fe 	mov	r1, #1065353216	; 0x3f800000
     428:	eb00058c 	bl	1a60 <__aeabi_fcmpeq>
     42c:	e3500000 	cmp	r0, #0
     430:	0a000024 	beq	4c8 <sin_me+0x1a0>
        float taylor_value = (PI/2 - quotient) - (pow_me(PI/2 - quotient, 3) / 6) + (pow_me(PI/2 - quotient, 5) / 120);
     434:	e3040550 	movw	r0, #17744	; 0x4550
     438:	e3450452 	movt	r0, #21586	; 0x5452
     43c:	e30211fb 	movw	r1, #8699	; 0x21fb
     440:	e3431ff9 	movt	r1, #16377	; 0x3ff9
     444:	e1cd20d0 	ldrd	r2, [sp]
     448:	eb00014f 	bl	98c <__aeabi_dsub>
     44c:	e1a04000 	mov	r4, r0
     450:	e1a05001 	mov	r5, r1
     454:	eb0003c9 	bl	1380 <__aeabi_d2f>
     458:	e1a06000 	mov	r6, r0
     45c:	e3a01003 	mov	r1, #3
     460:	ebffff9f 	bl	2e4 <pow_me>
     464:	e3a01000 	mov	r1, #0
     468:	e34410c0 	movt	r1, #16576	; 0x40c0
     46c:	eb0004fc 	bl	1864 <__aeabi_fdiv>
     470:	eb00021d 	bl	cec <__aeabi_f2d>
     474:	e1a02000 	mov	r2, r0
     478:	e1a03001 	mov	r3, r1
     47c:	e1a00004 	mov	r0, r4
     480:	e1a01005 	mov	r1, r5
     484:	eb000140 	bl	98c <__aeabi_dsub>
     488:	e1a04000 	mov	r4, r0
     48c:	e1a05001 	mov	r5, r1
     490:	e1a00006 	mov	r0, r6
     494:	e3a01005 	mov	r1, #5
     498:	ebffff91 	bl	2e4 <pow_me>
     49c:	e3a01000 	mov	r1, #0
     4a0:	e34412f0 	movt	r1, #17136	; 0x42f0
     4a4:	eb0004ee 	bl	1864 <__aeabi_fdiv>
     4a8:	eb00020f 	bl	cec <__aeabi_f2d>
     4ac:	e1a02000 	mov	r2, r0
     4b0:	e1a03001 	mov	r3, r1
     4b4:	e1a00004 	mov	r0, r4
     4b8:	e1a01005 	mov	r1, r5
     4bc:	eb000133 	bl	990 <__adddf3>
     4c0:	eb0003ae 	bl	1380 <__aeabi_d2f>
        return taylor_value;
     4c4:	ea00003e 	b	5c4 <sin_me+0x29c>
    }
    else if(quadrant == 2) {
     4c8:	e1a00006 	mov	r0, r6
     4cc:	e3a01101 	mov	r1, #1073741824	; 0x40000000
     4d0:	eb000562 	bl	1a60 <__aeabi_fcmpeq>
     4d4:	e3500000 	cmp	r0, #0
     4d8:	0a000014 	beq	530 <sin_me+0x208>
        float taylor_value = (quotient) - (pow_me(quotient, 3) / 6) + (pow_me(quotient, 5) / 120);
     4dc:	e1a00007 	mov	r0, r7
     4e0:	e3a01003 	mov	r1, #3
     4e4:	ebffff7e 	bl	2e4 <pow_me>
     4e8:	e3a01000 	mov	r1, #0
     4ec:	e34410c0 	movt	r1, #16576	; 0x40c0
     4f0:	eb0004db 	bl	1864 <__aeabi_fdiv>
     4f4:	e1a01000 	mov	r1, r0
     4f8:	e1a00007 	mov	r0, r7
     4fc:	eb0003c9 	bl	1428 <__aeabi_fsub>
     500:	e1a04000 	mov	r4, r0
     504:	e1a00007 	mov	r0, r7
     508:	e3a01005 	mov	r1, #5
     50c:	ebffff74 	bl	2e4 <pow_me>
     510:	e3a01000 	mov	r1, #0
     514:	e34412f0 	movt	r1, #17136	; 0x42f0
     518:	eb0004d1 	bl	1864 <__aeabi_fdiv>
     51c:	e1a01000 	mov	r1, r0
     520:	e1a00004 	mov	r0, r4
     524:	eb0003c0 	bl	142c <__addsf3>
        return -taylor_value;
     528:	e2800102 	add	r0, r0, #-2147483648	; 0x80000000
     52c:	ea000024 	b	5c4 <sin_me+0x29c>
    }
    else {
        float taylor_value = (PI/2 - quotient) - (pow_me(PI/2 - quotient, 3) / 6) + (pow_me(PI/2 - quotient, 5) / 120);
     530:	e3040550 	movw	r0, #17744	; 0x4550
     534:	e3450452 	movt	r0, #21586	; 0x5452
     538:	e30211fb 	movw	r1, #8699	; 0x21fb
     53c:	e3431ff9 	movt	r1, #16377	; 0x3ff9
     540:	e1cd20d0 	ldrd	r2, [sp]
     544:	eb000110 	bl	98c <__aeabi_dsub>
     548:	e1a04000 	mov	r4, r0
     54c:	e1a05001 	mov	r5, r1
     550:	eb00038a 	bl	1380 <__aeabi_d2f>
     554:	e1a06000 	mov	r6, r0
     558:	e3a01003 	mov	r1, #3
     55c:	ebffff60 	bl	2e4 <pow_me>
     560:	e3a01000 	mov	r1, #0
     564:	e34410c0 	movt	r1, #16576	; 0x40c0
     568:	eb0004bd 	bl	1864 <__aeabi_fdiv>
     56c:	eb0001de 	bl	cec <__aeabi_f2d>
     570:	e1a02000 	mov	r2, r0
     574:	e1a03001 	mov	r3, r1
     578:	e1a00004 	mov	r0, r4
     57c:	e1a01005 	mov	r1, r5
     580:	eb000101 	bl	98c <__aeabi_dsub>
     584:	e1a04000 	mov	r4, r0
     588:	e1a05001 	mov	r5, r1
     58c:	e1a00006 	mov	r0, r6
     590:	e3a01005 	mov	r1, #5
     594:	ebffff52 	bl	2e4 <pow_me>
     598:	e3a01000 	mov	r1, #0
     59c:	e34412f0 	movt	r1, #17136	; 0x42f0
     5a0:	eb0004af 	bl	1864 <__aeabi_fdiv>
     5a4:	eb0001d0 	bl	cec <__aeabi_f2d>
     5a8:	e1a02000 	mov	r2, r0
     5ac:	e1a03001 	mov	r3, r1
     5b0:	e1a00004 	mov	r0, r4
     5b4:	e1a01005 	mov	r1, r5
     5b8:	eb0000f4 	bl	990 <__adddf3>
     5bc:	eb00036f 	bl	1380 <__aeabi_d2f>
        return -taylor_value;
     5c0:	e2800102 	add	r0, r0, #-2147483648	; 0x80000000
    }
    
    return -1;
}
     5c4:	e28dd00c 	add	sp, sp, #12
     5c8:	e8bd8ff0 	pop	{r4, r5, r6, r7, r8, r9, r10, r11, pc}

000005cc <cos_me>:

float cos_me(float in) {
     5cc:	e92d4008 	push	{r3, lr}
    return sin_me(in + PI/2);
     5d0:	eb0001c5 	bl	cec <__aeabi_f2d>
     5d4:	e3042550 	movw	r2, #17744	; 0x4550
     5d8:	e3452452 	movt	r2, #21586	; 0x5452
     5dc:	e30231fb 	movw	r3, #8699	; 0x21fb
     5e0:	e3433ff9 	movt	r3, #16377	; 0x3ff9
     5e4:	eb0000e9 	bl	990 <__adddf3>
     5e8:	eb000364 	bl	1380 <__aeabi_d2f>
     5ec:	ebffff4d 	bl	328 <sin_me>
}
     5f0:	e8bd8008 	pop	{r3, pc}

000005f4 <_fft>:
/*
 * Original code copied from https://rosettacode.org/wiki/Fast_Fourier_transform#C
 * Modified to work without complex library which isn't supported
 */

void _fft(Re buf_re[], Im buf_im[], Re out_re[], Im out_im[], int n, int step) {
     5f4:	e92d4ff0 	push	{r4, r5, r6, r7, r8, r9, r10, r11, lr}
     5f8:	e24dd02c 	sub	sp, sp, #44	; 0x2c
     5fc:	e58d0008 	str	r0, [sp, #8]
     600:	e58d100c 	str	r1, [sp, #12]
     604:	e58d2010 	str	r2, [sp, #16]
     608:	e58d3014 	str	r3, [sp, #20]
     60c:	e59d8050 	ldr	r8, [sp, #80]	; 0x50
     610:	e59d4054 	ldr	r4, [sp, #84]	; 0x54
	if (step < n) {
     614:	e1540008 	cmp	r4, r8
     618:	aa000074 	bge	7f0 <_fft+0x1fc>
		_fft(out_re, out_im, buf_re, buf_im, n, step * 2);
     61c:	e1a02084 	lsl	r2, r4, #1
     620:	e58d2018 	str	r2, [sp, #24]
     624:	e58d8000 	str	r8, [sp]
     628:	e58d2004 	str	r2, [sp, #4]
     62c:	e59d0010 	ldr	r0, [sp, #16]
     630:	e1a01003 	mov	r1, r3
     634:	e59d2008 	ldr	r2, [sp, #8]
     638:	e59d300c 	ldr	r3, [sp, #12]
     63c:	ebffffec 	bl	5f4 <_fft>
		_fft(out_re + step, out_im + step, buf_re + step, buf_im + step, n, step * 2);
     640:	e1a03104 	lsl	r3, r4, #2
     644:	e59dc010 	ldr	r12, [sp, #16]
     648:	e08cc003 	add	r12, r12, r3
     64c:	e58dc01c 	str	r12, [sp, #28]
     650:	e59d2014 	ldr	r2, [sp, #20]
     654:	e0822003 	add	r2, r2, r3
     658:	e58d2020 	str	r2, [sp, #32]
     65c:	e58d8000 	str	r8, [sp]
     660:	e59dc018 	ldr	r12, [sp, #24]
     664:	e58dc004 	str	r12, [sp, #4]
     668:	e59d001c 	ldr	r0, [sp, #28]
     66c:	e1a01002 	mov	r1, r2
     670:	e59dc008 	ldr	r12, [sp, #8]
     674:	e08c2003 	add	r2, r12, r3
     678:	e59dc00c 	ldr	r12, [sp, #12]
     67c:	e08c3003 	add	r3, r12, r3
     680:	ebffffdb 	bl	5f4 <_fft>
 
		for (int i = 0; i < n; i += 2 * step) {
     684:	e3580000 	cmp	r8, #0
     688:	da000058 	ble	7f0 <_fft+0x1fc>
/*
 * Original code copied from https://rosettacode.org/wiki/Fast_Fourier_transform#C
 * Modified to work without complex library which isn't supported
 */

void _fft(Re buf_re[], Im buf_im[], Re out_re[], Im out_im[], int n, int step) {
     68c:	e59d2018 	ldr	r2, [sp, #24]
     690:	e1a02102 	lsl	r2, r2, #2
     694:	e58d2024 	str	r2, [sp, #36]	; 0x24
     698:	e3a06000 	mov	r6, #0
	if (step < n) {
		_fft(out_re, out_im, buf_re, buf_im, n, step * 2);
		_fft(out_re + step, out_im + step, buf_re + step, buf_im + step, n, step * 2);
 
		for (int i = 0; i < n; i += 2 * step) {
     69c:	e1a07006 	mov	r7, r6
            //This conversion should work
			Re re_t = cexp_re(-PI * i / n) * out_re[i + step] - cexp_im(-PI * i / n) * out_im[i + step];
     6a0:	e1a00007 	mov	r0, r7
     6a4:	eb000186 	bl	cc4 <__aeabi_i2d>
     6a8:	e3042550 	movw	r2, #17744	; 0x4550
     6ac:	e3452452 	movt	r2, #21586	; 0x5452
     6b0:	e30231fb 	movw	r3, #8699	; 0x21fb
     6b4:	e34c3009 	movt	r3, #49161	; 0xc009
     6b8:	eb0001b8 	bl	da0 <__aeabi_dmul>
     6bc:	e1a04000 	mov	r4, r0
     6c0:	e1a05001 	mov	r5, r1
     6c4:	e1a00008 	mov	r0, r8
     6c8:	eb00017d 	bl	cc4 <__aeabi_i2d>
     6cc:	e1a02000 	mov	r2, r0
     6d0:	e1a03001 	mov	r3, r1
     6d4:	e1a00004 	mov	r0, r4
     6d8:	e1a01005 	mov	r1, r5
     6dc:	eb000253 	bl	1030 <__aeabi_ddiv>
     6e0:	eb000326 	bl	1380 <__aeabi_d2f>
     6e4:	e1a0a000 	mov	r10, r0
float cos_me(float in) {
    return sin_me(in + PI/2);
}

inline Re cexp_re(Re re_in) {
    return cos_me(re_in);
     6e8:	ebffffb7 	bl	5cc <cos_me>
     6ec:	e1a05000 	mov	r5, r0
		_fft(out_re, out_im, buf_re, buf_im, n, step * 2);
		_fft(out_re + step, out_im + step, buf_re + step, buf_im + step, n, step * 2);
 
		for (int i = 0; i < n; i += 2 * step) {
            //This conversion should work
			Re re_t = cexp_re(-PI * i / n) * out_re[i + step] - cexp_im(-PI * i / n) * out_im[i + step];
     6f0:	e59d301c 	ldr	r3, [sp, #28]
     6f4:	e793b006 	ldr	r11, [r3, r6]
     6f8:	e1a0000b 	mov	r0, r11
     6fc:	e1a01005 	mov	r1, r5
     700:	eb0003f1 	bl	16cc <__aeabi_fmul>
     704:	e1a04000 	mov	r4, r0
inline Re cexp_re(Re re_in) {
    return cos_me(re_in);
}

inline Im cexp_im(Im im_in) {
    return sin_me(im_in);
     708:	e1a0000a 	mov	r0, r10
     70c:	ebffff05 	bl	328 <sin_me>
     710:	e1a09000 	mov	r9, r0
		_fft(out_re, out_im, buf_re, buf_im, n, step * 2);
		_fft(out_re + step, out_im + step, buf_re + step, buf_im + step, n, step * 2);
 
		for (int i = 0; i < n; i += 2 * step) {
            //This conversion should work
			Re re_t = cexp_re(-PI * i / n) * out_re[i + step] - cexp_im(-PI * i / n) * out_im[i + step];
     714:	e59dc020 	ldr	r12, [sp, #32]
     718:	e79ca006 	ldr	r10, [r12, r6]
     71c:	e1a0000a 	mov	r0, r10
     720:	e1a01009 	mov	r1, r9
     724:	eb0003e8 	bl	16cc <__aeabi_fmul>
     728:	e1a01000 	mov	r1, r0
     72c:	e1a00004 	mov	r0, r4
     730:	eb00033c 	bl	1428 <__aeabi_fsub>
     734:	e1a04000 	mov	r4, r0
            Im im_t = cexp_im(-PI * i / n) * out_re[i + step] + cexp_re(-PI * i / n) * out_im[i + step];
     738:	e1a0000b 	mov	r0, r11
     73c:	e1a01009 	mov	r1, r9
     740:	eb0003e1 	bl	16cc <__aeabi_fmul>
     744:	e1a09000 	mov	r9, r0
     748:	e1a0000a 	mov	r0, r10
     74c:	e1a01005 	mov	r1, r5
     750:	eb0003dd 	bl	16cc <__aeabi_fmul>
     754:	e1a01000 	mov	r1, r0
     758:	e1a00009 	mov	r0, r9
     75c:	eb000332 	bl	142c <__addsf3>
     760:	e1a0a000 	mov	r10, r0
			buf_re[i / 2]     = out_re[i] + re_t;
     764:	e0875fa7 	add	r5, r7, r7, lsr #31
     768:	e1a050c5 	asr	r5, r5, #1
     76c:	e59d2010 	ldr	r2, [sp, #16]
     770:	e7920006 	ldr	r0, [r2, r6]
     774:	e1a01004 	mov	r1, r4
     778:	eb00032b 	bl	142c <__addsf3>
     77c:	e59d3008 	ldr	r3, [sp, #8]
     780:	e7830105 	str	r0, [r3, r5, lsl #2]
            buf_im[i / 2]     = out_im[i] + im_t;
     784:	e59dc014 	ldr	r12, [sp, #20]
     788:	e79c0006 	ldr	r0, [r12, r6]
     78c:	e1a0100a 	mov	r1, r10
     790:	eb000325 	bl	142c <__addsf3>
     794:	e59d200c 	ldr	r2, [sp, #12]
     798:	e7820105 	str	r0, [r2, r5, lsl #2]
/*
 * Original code copied from https://rosettacode.org/wiki/Fast_Fourier_transform#C
 * Modified to work without complex library which isn't supported
 */

void _fft(Re buf_re[], Im buf_im[], Re out_re[], Im out_im[], int n, int step) {
     79c:	e0875008 	add	r5, r7, r8
            //This conversion should work
			Re re_t = cexp_re(-PI * i / n) * out_re[i + step] - cexp_im(-PI * i / n) * out_im[i + step];
            Im im_t = cexp_im(-PI * i / n) * out_re[i + step] + cexp_re(-PI * i / n) * out_im[i + step];
			buf_re[i / 2]     = out_re[i] + re_t;
            buf_im[i / 2]     = out_im[i] + im_t;
			buf_re[(i + n)/2] = out_re[i] - re_t;
     7a0:	e0855fa5 	add	r5, r5, r5, lsr #31
     7a4:	e1a050c5 	asr	r5, r5, #1
     7a8:	e59d3010 	ldr	r3, [sp, #16]
     7ac:	e7930006 	ldr	r0, [r3, r6]
     7b0:	e1a01004 	mov	r1, r4
     7b4:	eb00031b 	bl	1428 <__aeabi_fsub>
     7b8:	e59dc008 	ldr	r12, [sp, #8]
     7bc:	e78c0105 	str	r0, [r12, r5, lsl #2]
            buf_im[(i + n)/2] = out_im[i] - im_t;
     7c0:	e59d2014 	ldr	r2, [sp, #20]
     7c4:	e7920006 	ldr	r0, [r2, r6]
     7c8:	e1a0100a 	mov	r1, r10
     7cc:	eb000315 	bl	1428 <__aeabi_fsub>
     7d0:	e59d300c 	ldr	r3, [sp, #12]
     7d4:	e7830105 	str	r0, [r3, r5, lsl #2]
void _fft(Re buf_re[], Im buf_im[], Re out_re[], Im out_im[], int n, int step) {
	if (step < n) {
		_fft(out_re, out_im, buf_re, buf_im, n, step * 2);
		_fft(out_re + step, out_im + step, buf_re + step, buf_im + step, n, step * 2);
 
		for (int i = 0; i < n; i += 2 * step) {
     7d8:	e59dc018 	ldr	r12, [sp, #24]
     7dc:	e087700c 	add	r7, r7, r12
     7e0:	e59d2024 	ldr	r2, [sp, #36]	; 0x24
     7e4:	e0866002 	add	r6, r6, r2
     7e8:	e1580007 	cmp	r8, r7
     7ec:	caffffab 	bgt	6a0 <_fft+0xac>
            buf_im[i / 2]     = out_im[i] + im_t;
			buf_re[(i + n)/2] = out_re[i] - re_t;
            buf_im[(i + n)/2] = out_im[i] - im_t;
		}
	}
}
     7f0:	e28dd02c 	add	sp, sp, #44	; 0x2c
     7f4:	e8bd8ff0 	pop	{r4, r5, r6, r7, r8, r9, r10, r11, pc}

000007f8 <fft>:

/*
 *  Fast Fourier Transform function
 */
void fft(Re buf_re[], Im buf_im[], int n) {
     7f8:	e92d4830 	push	{r4, r5, r11, lr}
     7fc:	e28db00c 	add	r11, sp, #12
     800:	e24dd008 	sub	sp, sp, #8
     804:	e1a05002 	mov	r5, r2
	Re out_re[n];
     808:	e1a04102 	lsl	r4, r2, #2
     80c:	e284300a 	add	r3, r4, #10
     810:	e3c33007 	bic	r3, r3, #7
     814:	e04dd003 	sub	sp, sp, r3
     818:	e28d2008 	add	r2, sp, #8
    Im out_im[n];
     81c:	e04dd003 	sub	sp, sp, r3
     820:	e28d3008 	add	r3, sp, #8
	for (int i = 0; i < n; i++) {
     824:	e3550000 	cmp	r5, #0
     828:	da000007 	ble	84c <fft+0x54>
     82c:	e3a0c000 	mov	r12, #0
        out_re[i] = buf_re[i];
     830:	e790e00c 	ldr	lr, [r0, r12]
     834:	e782e00c 	str	lr, [r2, r12]
        out_im[i] = buf_im[i];
     838:	e791e00c 	ldr	lr, [r1, r12]
     83c:	e783e00c 	str	lr, [r3, r12]
     840:	e28cc004 	add	r12, r12, #4
 *  Fast Fourier Transform function
 */
void fft(Re buf_re[], Im buf_im[], int n) {
	Re out_re[n];
    Im out_im[n];
	for (int i = 0; i < n; i++) {
     844:	e154000c 	cmp	r4, r12
     848:	1afffff8 	bne	830 <fft+0x38>
        out_re[i] = buf_re[i];
        out_im[i] = buf_im[i];
    }
 
	_fft(buf_re, buf_im, out_re, out_im, n, 1);
     84c:	e58d5000 	str	r5, [sp]
     850:	e3a0c001 	mov	r12, #1
     854:	e58dc004 	str	r12, [sp, #4]
     858:	ebffff65 	bl	5f4 <_fft>
     85c:	e24bd00c 	sub	sp, r11, #12
     860:	e8bd8830 	pop	{r4, r5, r11, pc}

00000864 <main>:
#define PI 3.141592654

void check_KEYs(int *, int *, int *);
void fft(Re buf_re[], Im buf_im[], int n);

int main(void) {
     864:	e92d4ff0 	push	{r4, r5, r6, r7, r8, r9, r10, r11, lr}
     868:	e24dda01 	sub	sp, sp, #4096	; 0x1000
     86c:	e24dd00c 	sub	sp, sp, #12
    Im right_buffer_im[BUF_SIZE];

    while (1) {

        //This segment loads the audio buffers
        *(red_LED_ptr) = 0x1; // turn on LEDR[0]
     870:	e3a09000 	mov	r9, #0
     874:	e34f9f20 	movt	r9, #65312	; 0xff20
     878:	e3a0b001 	mov	r11, #1
        fifospace = *(audio_ptr + 1); // read the audio port fifospace register
     87c:	e3036fff 	movw	r6, #16383	; 0x3fff
     880:	e34f6f20 	movt	r6, #65312	; 0xff20
        if ((fifospace & 0x000000FF) > BUF_THRESHOLD) {
            // store data until the the audio-in FIFO is empty or the buffer
            // is full
            while ((fifospace & 0x000000FF) && (buffer_index < BUF_SIZE)) {
                left_buffer_re[buffer_index] = (Re) *(audio_ptr + 2);
                left_buffer_im[buffer_index] = 0;
     884:	e3a02a0f 	mov	r2, #61440	; 0xf000
     888:	e34f2fff 	movt	r2, #65535	; 0xffff
     88c:	e58d2004 	str	r2, [sp, #4]
     890:	e3a0a000 	mov	r10, #0
        // Use Left channel
        fft(left_buffer_re, left_buffer_im, BUF_SIZE);
        
        //Test code
        for(int i = 0; i < BUF_SIZE; i++) {
            printf("%f ", left_buffer_re[i]);
     894:	e30b4ec8 	movw	r4, #48840	; 0xbec8
     898:	e3404000 	movt	r4, #0
    Im right_buffer_im[BUF_SIZE];

    while (1) {

        //This segment loads the audio buffers
        *(red_LED_ptr) = 0x1; // turn on LEDR[0]
     89c:	e589b000 	str	r11, [r9]
        fifospace = *(audio_ptr + 1); // read the audio port fifospace register
     8a0:	e5163fbb 	ldr	r3, [r6, #-4027]	; 0xfffff045
        int buffer_index = 0;
        if ((fifospace & 0x000000FF) > BUF_THRESHOLD) {
     8a4:	e6ef3073 	uxtb	r3, r3
     8a8:	e3530020 	cmp	r3, #32
     8ac:	da000011 	ble	8f8 <main+0x94>
            // store data until the the audio-in FIFO is empty or the buffer
            // is full
            while ((fifospace & 0x000000FF) && (buffer_index < BUF_SIZE)) {
     8b0:	e3530000 	cmp	r3, #0
     8b4:	1a000024 	bne	94c <main+0xe8>
     8b8:	ea00000e 	b	8f8 <main+0x94>
                left_buffer_re[buffer_index] = (Re) *(audio_ptr + 2);
     8bc:	e5160fb7 	ldr	r0, [r6, #-4023]	; 0xfffff049
     8c0:	eb00034a 	bl	15f0 <__aeabi_i2f>
     8c4:	e5a50004 	str	r0, [r5, #4]!
                left_buffer_im[buffer_index] = 0;
     8c8:	e5a8a004 	str	r10, [r8, #4]!
                right_buffer_re[buffer_index] = (Re) *(audio_ptr + 3);
     8cc:	e5163fb3 	ldr	r3, [r6, #-4019]	; 0xfffff04d
                right_buffer_im[buffer_index] = 0;
                ++buffer_index;
                if (buffer_index == BUF_SIZE) {
     8d0:	e1550007 	cmp	r5, r7
                    // done recording
                    *(red_LED_ptr) = 0x0; // turn off LEDR
     8d4:	03a03000 	moveq	r3, #0
     8d8:	05893000 	streq	r3, [r9]
                }
                fifospace = *(audio_ptr + 1); // read the audio port fifospace register
     8dc:	05163fbb 	ldreq	r3, [r6, #-4027]	; 0xfffff045
     8e0:	0a000004 	beq	8f8 <main+0x94>
     8e4:	e5163fbb 	ldr	r3, [r6, #-4027]	; 0xfffff045
        fifospace = *(audio_ptr + 1); // read the audio port fifospace register
        int buffer_index = 0;
        if ((fifospace & 0x000000FF) > BUF_THRESHOLD) {
            // store data until the the audio-in FIFO is empty or the buffer
            // is full
            while ((fifospace & 0x000000FF) && (buffer_index < BUF_SIZE)) {
     8e8:	e31300ff 	tst	r3, #255	; 0xff
     8ec:	0a000001 	beq	8f8 <main+0x94>
     8f0:	e1550007 	cmp	r5, r7
     8f4:	1afffff0 	bne	8bc <main+0x58>
                fifospace = *(audio_ptr + 1); // read the audio port fifospace register
            }
        }

        // Use Left channel
        fft(left_buffer_re, left_buffer_im, BUF_SIZE);
     8f8:	e28d0b02 	add	r0, sp, #2048	; 0x800
     8fc:	e2800008 	add	r0, r0, #8
     900:	e28d1008 	add	r1, sp, #8
     904:	e3a02c02 	mov	r2, #512	; 0x200
     908:	ebffffba 	bl	7f8 <fft>
     90c:	e28d3b02 	add	r3, sp, #2048	; 0x800
     910:	e2833008 	add	r3, r3, #8
     914:	e2435004 	sub	r5, r3, #4
#define PI 3.141592654

void check_KEYs(int *, int *, int *);
void fft(Re buf_re[], Im buf_im[], int n);

int main(void) {
     918:	e28d7a01 	add	r7, sp, #4096	; 0x1000
     91c:	e2877004 	add	r7, r7, #4
        // Use Left channel
        fft(left_buffer_re, left_buffer_im, BUF_SIZE);
        
        //Test code
        for(int i = 0; i < BUF_SIZE; i++) {
            printf("%f ", left_buffer_re[i]);
     920:	e5b50004 	ldr	r0, [r5, #4]!
     924:	eb0000f0 	bl	cec <__aeabi_f2d>
     928:	e1a02000 	mov	r2, r0
     92c:	e1a03001 	mov	r3, r1
     930:	e1a00004 	mov	r0, r4
     934:	eb000489 	bl	1b60 <printf>

        // Use Left channel
        fft(left_buffer_re, left_buffer_im, BUF_SIZE);
        
        //Test code
        for(int i = 0; i < BUF_SIZE; i++) {
     938:	e1550007 	cmp	r5, r7
     93c:	1afffff7 	bne	920 <main+0xbc>
            printf("%f ", left_buffer_re[i]);
        }
        printf("\n");
     940:	e3a0000a 	mov	r0, #10
     944:	eb00049a 	bl	1bb4 <putchar>
    }
     948:	eaffffd3 	b	89c <main+0x38>
        int buffer_index = 0;
        if ((fifospace & 0x000000FF) > BUF_THRESHOLD) {
            // store data until the the audio-in FIFO is empty or the buffer
            // is full
            while ((fifospace & 0x000000FF) && (buffer_index < BUF_SIZE)) {
                left_buffer_re[buffer_index] = (Re) *(audio_ptr + 2);
     94c:	e5160fb7 	ldr	r0, [r6, #-4023]	; 0xfffff049
     950:	eb000326 	bl	15f0 <__aeabi_i2f>
     954:	e58d0808 	str	r0, [sp, #2056]	; 0x808
                left_buffer_im[buffer_index] = 0;
     958:	e28d3a01 	add	r3, sp, #4096	; 0x1000
     95c:	e2833008 	add	r3, r3, #8
     960:	e59d2004 	ldr	r2, [sp, #4]
     964:	e783a002 	str	r10, [r3, r2]
                right_buffer_re[buffer_index] = (Re) *(audio_ptr + 3);
     968:	e5163fb3 	ldr	r3, [r6, #-4019]	; 0xfffff04d
     96c:	e28d5b02 	add	r5, sp, #2048	; 0x800
     970:	e2855008 	add	r5, r5, #8
     974:	e28d8008 	add	r8, sp, #8
#define PI 3.141592654

void check_KEYs(int *, int *, int *);
void fft(Re buf_re[], Im buf_im[], int n);

int main(void) {
     978:	e28d7a01 	add	r7, sp, #4096	; 0x1000
     97c:	e2877004 	add	r7, r7, #4
     980:	eaffffd7 	b	8e4 <main+0x80>

00000984 <__aeabi_drsub>:
     984:	e2211102 	eor	r1, r1, #-2147483648	; 0x80000000
     988:	ea000000 	b	990 <__adddf3>

0000098c <__aeabi_dsub>:
     98c:	e2233102 	eor	r3, r3, #-2147483648	; 0x80000000

00000990 <__adddf3>:
     990:	e92d4030 	push	{r4, r5, lr}
     994:	e1a04081 	lsl	r4, r1, #1
     998:	e1a05083 	lsl	r5, r3, #1
     99c:	e1340005 	teq	r4, r5
     9a0:	01300002 	teqeq	r0, r2
     9a4:	1194c000 	orrsne	r12, r4, r0
     9a8:	1195c002 	orrsne	r12, r5, r2
     9ac:	11f0cac4 	mvnsne	r12, r4, asr #21
     9b0:	11f0cac5 	mvnsne	r12, r5, asr #21
     9b4:	0a00008c 	beq	bec <__adddf3+0x25c>
     9b8:	e1a04aa4 	lsr	r4, r4, #21
     9bc:	e0745aa5 	rsbs	r5, r4, r5, lsr #21
     9c0:	b2655000 	rsblt	r5, r5, #0
     9c4:	da000006 	ble	9e4 <__adddf3+0x54>
     9c8:	e0844005 	add	r4, r4, r5
     9cc:	e0202002 	eor	r2, r0, r2
     9d0:	e0213003 	eor	r3, r1, r3
     9d4:	e0220000 	eor	r0, r2, r0
     9d8:	e0231001 	eor	r1, r3, r1
     9dc:	e0202002 	eor	r2, r0, r2
     9e0:	e0213003 	eor	r3, r1, r3
     9e4:	e3550036 	cmp	r5, #54	; 0x36
     9e8:	88bd4030 	pophi	{r4, r5, lr}
     9ec:	812fff1e 	bxhi	lr
     9f0:	e3110102 	tst	r1, #-2147483648	; 0x80000000
     9f4:	e1a01601 	lsl	r1, r1, #12
     9f8:	e3a0c601 	mov	r12, #1048576	; 0x100000
     9fc:	e18c1621 	orr	r1, r12, r1, lsr #12
     a00:	0a000001 	beq	a0c <__adddf3+0x7c>
     a04:	e2700000 	rsbs	r0, r0, #0
     a08:	e2e11000 	rsc	r1, r1, #0
     a0c:	e3130102 	tst	r3, #-2147483648	; 0x80000000
     a10:	e1a03603 	lsl	r3, r3, #12
     a14:	e18c3623 	orr	r3, r12, r3, lsr #12
     a18:	0a000001 	beq	a24 <__adddf3+0x94>
     a1c:	e2722000 	rsbs	r2, r2, #0
     a20:	e2e33000 	rsc	r3, r3, #0
     a24:	e1340005 	teq	r4, r5
     a28:	0a000069 	beq	bd4 <__adddf3+0x244>
     a2c:	e2444001 	sub	r4, r4, #1
     a30:	e275e020 	rsbs	lr, r5, #32
     a34:	ba000005 	blt	a50 <__adddf3+0xc0>
     a38:	e1a0ce12 	lsl	r12, r2, lr
     a3c:	e0900532 	adds	r0, r0, r2, lsr r5
     a40:	e2a11000 	adc	r1, r1, #0
     a44:	e0900e13 	adds	r0, r0, r3, lsl lr
     a48:	e0b11553 	adcs	r1, r1, r3, asr r5
     a4c:	ea000006 	b	a6c <__adddf3+0xdc>
     a50:	e2455020 	sub	r5, r5, #32
     a54:	e28ee020 	add	lr, lr, #32
     a58:	e3520001 	cmp	r2, #1
     a5c:	e1a0ce13 	lsl	r12, r3, lr
     a60:	238cc002 	orrcs	r12, r12, #2
     a64:	e0900553 	adds	r0, r0, r3, asr r5
     a68:	e0b11fc3 	adcs	r1, r1, r3, asr #31
     a6c:	e2015102 	and	r5, r1, #-2147483648	; 0x80000000
     a70:	5a000002 	bpl	a80 <__adddf3+0xf0>
     a74:	e27cc000 	rsbs	r12, r12, #0
     a78:	e2f00000 	rscs	r0, r0, #0
     a7c:	e2e11000 	rsc	r1, r1, #0
     a80:	e3510601 	cmp	r1, #1048576	; 0x100000
     a84:	3a00000f 	bcc	ac8 <__adddf3+0x138>
     a88:	e3510602 	cmp	r1, #2097152	; 0x200000
     a8c:	3a000006 	bcc	aac <__adddf3+0x11c>
     a90:	e1b010a1 	lsrs	r1, r1, #1
     a94:	e1b00060 	rrxs	r0, r0
     a98:	e1a0c06c 	rrx	r12, r12
     a9c:	e2844001 	add	r4, r4, #1
     aa0:	e1a02a84 	lsl	r2, r4, #21
     aa4:	e3720501 	cmn	r2, #4194304	; 0x400000
     aa8:	2a00006b 	bcs	c5c <__adddf3+0x2cc>
     aac:	e35c0102 	cmp	r12, #-2147483648	; 0x80000000
     ab0:	01b0c0a0 	lsrseq	r12, r0, #1
     ab4:	e2b00000 	adcs	r0, r0, #0
     ab8:	e0a11a04 	adc	r1, r1, r4, lsl #20
     abc:	e1811005 	orr	r1, r1, r5
     ac0:	e8bd4030 	pop	{r4, r5, lr}
     ac4:	e12fff1e 	bx	lr
     ac8:	e1b0c08c 	lsls	r12, r12, #1
     acc:	e0b00000 	adcs	r0, r0, r0
     ad0:	e0a11001 	adc	r1, r1, r1
     ad4:	e3110601 	tst	r1, #1048576	; 0x100000
     ad8:	e2444001 	sub	r4, r4, #1
     adc:	1afffff2 	bne	aac <__adddf3+0x11c>
     ae0:	e3310000 	teq	r1, #0
     ae4:	13a03014 	movne	r3, #20
     ae8:	03a03034 	moveq	r3, #52	; 0x34
     aec:	01a01000 	moveq	r1, r0
     af0:	03a00000 	moveq	r0, #0
     af4:	e1a02001 	mov	r2, r1
     af8:	e3520801 	cmp	r2, #65536	; 0x10000
     afc:	21a02822 	lsrcs	r2, r2, #16
     b00:	22433010 	subcs	r3, r3, #16
     b04:	e3520c01 	cmp	r2, #256	; 0x100
     b08:	21a02422 	lsrcs	r2, r2, #8
     b0c:	22433008 	subcs	r3, r3, #8
     b10:	e3520010 	cmp	r2, #16
     b14:	21a02222 	lsrcs	r2, r2, #4
     b18:	22433004 	subcs	r3, r3, #4
     b1c:	e3520004 	cmp	r2, #4
     b20:	22433002 	subcs	r3, r3, #2
     b24:	304330a2 	subcc	r3, r3, r2, lsr #1
     b28:	e04331a2 	sub	r3, r3, r2, lsr #3
     b2c:	e2532020 	subs	r2, r3, #32
     b30:	aa000007 	bge	b54 <__adddf3+0x1c4>
     b34:	e292200c 	adds	r2, r2, #12
     b38:	da000004 	ble	b50 <__adddf3+0x1c0>
     b3c:	e282c014 	add	r12, r2, #20
     b40:	e262200c 	rsb	r2, r2, #12
     b44:	e1a00c11 	lsl	r0, r1, r12
     b48:	e1a01231 	lsr	r1, r1, r2
     b4c:	ea000004 	b	b64 <__adddf3+0x1d4>
     b50:	e2822014 	add	r2, r2, #20
     b54:	d262c020 	rsble	r12, r2, #32
     b58:	e1a01211 	lsl	r1, r1, r2
     b5c:	d1811c30 	orrle	r1, r1, r0, lsr r12
     b60:	d1a00210 	lslle	r0, r0, r2
     b64:	e0544003 	subs	r4, r4, r3
     b68:	a0811a04 	addge	r1, r1, r4, lsl #20
     b6c:	a1811005 	orrge	r1, r1, r5
     b70:	a8bd4030 	popge	{r4, r5, lr}
     b74:	a12fff1e 	bxge	lr
     b78:	e1e04004 	mvn	r4, r4
     b7c:	e254401f 	subs	r4, r4, #31
     b80:	aa00000f 	bge	bc4 <__adddf3+0x234>
     b84:	e294400c 	adds	r4, r4, #12
     b88:	ca000006 	bgt	ba8 <__adddf3+0x218>
     b8c:	e2844014 	add	r4, r4, #20
     b90:	e2642020 	rsb	r2, r4, #32
     b94:	e1a00430 	lsr	r0, r0, r4
     b98:	e1800211 	orr	r0, r0, r1, lsl r2
     b9c:	e1851431 	orr	r1, r5, r1, lsr r4
     ba0:	e8bd4030 	pop	{r4, r5, lr}
     ba4:	e12fff1e 	bx	lr
     ba8:	e264400c 	rsb	r4, r4, #12
     bac:	e2642020 	rsb	r2, r4, #32
     bb0:	e1a00230 	lsr	r0, r0, r2
     bb4:	e1800411 	orr	r0, r0, r1, lsl r4
     bb8:	e1a01005 	mov	r1, r5
     bbc:	e8bd4030 	pop	{r4, r5, lr}
     bc0:	e12fff1e 	bx	lr
     bc4:	e1a00431 	lsr	r0, r1, r4
     bc8:	e1a01005 	mov	r1, r5
     bcc:	e8bd4030 	pop	{r4, r5, lr}
     bd0:	e12fff1e 	bx	lr
     bd4:	e3340000 	teq	r4, #0
     bd8:	e2233601 	eor	r3, r3, #1048576	; 0x100000
     bdc:	02211601 	eoreq	r1, r1, #1048576	; 0x100000
     be0:	02844001 	addeq	r4, r4, #1
     be4:	12455001 	subne	r5, r5, #1
     be8:	eaffff8f 	b	a2c <__adddf3+0x9c>
     bec:	e1f0cac4 	mvns	r12, r4, asr #21
     bf0:	11f0cac5 	mvnsne	r12, r5, asr #21
     bf4:	0a00001d 	beq	c70 <__adddf3+0x2e0>
     bf8:	e1340005 	teq	r4, r5
     bfc:	01300002 	teqeq	r0, r2
     c00:	0a000004 	beq	c18 <__adddf3+0x288>
     c04:	e194c000 	orrs	r12, r4, r0
     c08:	01a01003 	moveq	r1, r3
     c0c:	01a00002 	moveq	r0, r2
     c10:	e8bd4030 	pop	{r4, r5, lr}
     c14:	e12fff1e 	bx	lr
     c18:	e1310003 	teq	r1, r3
     c1c:	13a01000 	movne	r1, #0
     c20:	13a00000 	movne	r0, #0
     c24:	18bd4030 	popne	{r4, r5, lr}
     c28:	112fff1e 	bxne	lr
     c2c:	e1b0caa4 	lsrs	r12, r4, #21
     c30:	1a000004 	bne	c48 <__adddf3+0x2b8>
     c34:	e1b00080 	lsls	r0, r0, #1
     c38:	e0b11001 	adcs	r1, r1, r1
     c3c:	23811102 	orrcs	r1, r1, #-2147483648	; 0x80000000
     c40:	e8bd4030 	pop	{r4, r5, lr}
     c44:	e12fff1e 	bx	lr
     c48:	e2944501 	adds	r4, r4, #4194304	; 0x400000
     c4c:	32811601 	addcc	r1, r1, #1048576	; 0x100000
     c50:	38bd4030 	popcc	{r4, r5, lr}
     c54:	312fff1e 	bxcc	lr
     c58:	e2015102 	and	r5, r1, #-2147483648	; 0x80000000
     c5c:	e385147f 	orr	r1, r5, #2130706432	; 0x7f000000
     c60:	e381160f 	orr	r1, r1, #15728640	; 0xf00000
     c64:	e3a00000 	mov	r0, #0
     c68:	e8bd4030 	pop	{r4, r5, lr}
     c6c:	e12fff1e 	bx	lr
     c70:	e1f0cac4 	mvns	r12, r4, asr #21
     c74:	11a01003 	movne	r1, r3
     c78:	11a00002 	movne	r0, r2
     c7c:	01f0cac5 	mvnseq	r12, r5, asr #21
     c80:	11a03001 	movne	r3, r1
     c84:	11a02000 	movne	r2, r0
     c88:	e1904601 	orrs	r4, r0, r1, lsl #12
     c8c:	01925603 	orrseq	r5, r2, r3, lsl #12
     c90:	01310003 	teqeq	r1, r3
     c94:	13811702 	orrne	r1, r1, #524288	; 0x80000
     c98:	e8bd4030 	pop	{r4, r5, lr}
     c9c:	e12fff1e 	bx	lr

00000ca0 <__aeabi_ui2d>:
     ca0:	e3300000 	teq	r0, #0
     ca4:	03a01000 	moveq	r1, #0
     ca8:	012fff1e 	bxeq	lr
     cac:	e92d4030 	push	{r4, r5, lr}
     cb0:	e3a04b01 	mov	r4, #1024	; 0x400
     cb4:	e2844032 	add	r4, r4, #50	; 0x32
     cb8:	e3a05000 	mov	r5, #0
     cbc:	e3a01000 	mov	r1, #0
     cc0:	eaffff86 	b	ae0 <__adddf3+0x150>

00000cc4 <__aeabi_i2d>:
     cc4:	e3300000 	teq	r0, #0
     cc8:	03a01000 	moveq	r1, #0
     ccc:	012fff1e 	bxeq	lr
     cd0:	e92d4030 	push	{r4, r5, lr}
     cd4:	e3a04b01 	mov	r4, #1024	; 0x400
     cd8:	e2844032 	add	r4, r4, #50	; 0x32
     cdc:	e2105102 	ands	r5, r0, #-2147483648	; 0x80000000
     ce0:	42600000 	rsbmi	r0, r0, #0
     ce4:	e3a01000 	mov	r1, #0
     ce8:	eaffff7c 	b	ae0 <__adddf3+0x150>

00000cec <__aeabi_f2d>:
     cec:	e1b02080 	lsls	r2, r0, #1
     cf0:	e1a011c2 	asr	r1, r2, #3
     cf4:	e1a01061 	rrx	r1, r1
     cf8:	e1a00e02 	lsl	r0, r2, #28
     cfc:	121234ff 	andsne	r3, r2, #-16777216	; 0xff000000
     d00:	133304ff 	teqne	r3, #-16777216	; 0xff000000
     d04:	1221130e 	eorne	r1, r1, #939524096	; 0x38000000
     d08:	112fff1e 	bxne	lr
     d0c:	e3320000 	teq	r2, #0
     d10:	133304ff 	teqne	r3, #-16777216	; 0xff000000
     d14:	012fff1e 	bxeq	lr
     d18:	e92d4030 	push	{r4, r5, lr}
     d1c:	e3a04d0e 	mov	r4, #896	; 0x380
     d20:	e2015102 	and	r5, r1, #-2147483648	; 0x80000000
     d24:	e3c11102 	bic	r1, r1, #-2147483648	; 0x80000000
     d28:	eaffff6c 	b	ae0 <__adddf3+0x150>

00000d2c <__aeabi_ul2d>:
     d2c:	e1902001 	orrs	r2, r0, r1
     d30:	012fff1e 	bxeq	lr
     d34:	e92d4030 	push	{r4, r5, lr}
     d38:	e3a05000 	mov	r5, #0
     d3c:	ea000006 	b	d5c <__aeabi_l2d+0x1c>

00000d40 <__aeabi_l2d>:
     d40:	e1902001 	orrs	r2, r0, r1
     d44:	012fff1e 	bxeq	lr
     d48:	e92d4030 	push	{r4, r5, lr}
     d4c:	e2115102 	ands	r5, r1, #-2147483648	; 0x80000000
     d50:	5a000001 	bpl	d5c <__aeabi_l2d+0x1c>
     d54:	e2700000 	rsbs	r0, r0, #0
     d58:	e2e11000 	rsc	r1, r1, #0
     d5c:	e3a04b01 	mov	r4, #1024	; 0x400
     d60:	e2844032 	add	r4, r4, #50	; 0x32
     d64:	e1b0cb21 	lsrs	r12, r1, #22
     d68:	0affff44 	beq	a80 <__adddf3+0xf0>
     d6c:	e3a02003 	mov	r2, #3
     d70:	e1b0c1ac 	lsrs	r12, r12, #3
     d74:	12822003 	addne	r2, r2, #3
     d78:	e1b0c1ac 	lsrs	r12, r12, #3
     d7c:	12822003 	addne	r2, r2, #3
     d80:	e08221ac 	add	r2, r2, r12, lsr #3
     d84:	e2623020 	rsb	r3, r2, #32
     d88:	e1a0c310 	lsl	r12, r0, r3
     d8c:	e1a00230 	lsr	r0, r0, r2
     d90:	e1800311 	orr	r0, r0, r1, lsl r3
     d94:	e1a01231 	lsr	r1, r1, r2
     d98:	e0844002 	add	r4, r4, r2
     d9c:	eaffff37 	b	a80 <__adddf3+0xf0>

00000da0 <__aeabi_dmul>:
     da0:	e92d4070 	push	{r4, r5, r6, lr}
     da4:	e3a0c0ff 	mov	r12, #255	; 0xff
     da8:	e38ccc07 	orr	r12, r12, #1792	; 0x700
     dac:	e01c4a21 	ands	r4, r12, r1, lsr #20
     db0:	101c5a23 	andsne	r5, r12, r3, lsr #20
     db4:	1134000c 	teqne	r4, r12
     db8:	1135000c 	teqne	r5, r12
     dbc:	0b000075 	bleq	f98 <__aeabi_dmul+0x1f8>
     dc0:	e0844005 	add	r4, r4, r5
     dc4:	e0216003 	eor	r6, r1, r3
     dc8:	e1c11a8c 	bic	r1, r1, r12, lsl #21
     dcc:	e1c33a8c 	bic	r3, r3, r12, lsl #21
     dd0:	e1905601 	orrs	r5, r0, r1, lsl #12
     dd4:	11925603 	orrsne	r5, r2, r3, lsl #12
     dd8:	e3811601 	orr	r1, r1, #1048576	; 0x100000
     ddc:	e3833601 	orr	r3, r3, #1048576	; 0x100000
     de0:	0a00001d 	beq	e5c <__aeabi_dmul+0xbc>
     de4:	e08ec290 	umull	r12, lr, r0, r2
     de8:	e3a05000 	mov	r5, #0
     dec:	e0a5e291 	umlal	lr, r5, r1, r2
     df0:	e2062102 	and	r2, r6, #-2147483648	; 0x80000000
     df4:	e0a5e390 	umlal	lr, r5, r0, r3
     df8:	e3a06000 	mov	r6, #0
     dfc:	e0a65391 	umlal	r5, r6, r1, r3
     e00:	e33c0000 	teq	r12, #0
     e04:	138ee001 	orrne	lr, lr, #1
     e08:	e24440ff 	sub	r4, r4, #255	; 0xff
     e0c:	e3560c02 	cmp	r6, #512	; 0x200
     e10:	e2c44c03 	sbc	r4, r4, #768	; 0x300
     e14:	2a000002 	bcs	e24 <__aeabi_dmul+0x84>
     e18:	e1b0e08e 	lsls	lr, lr, #1
     e1c:	e0b55005 	adcs	r5, r5, r5
     e20:	e0a66006 	adc	r6, r6, r6
     e24:	e1821586 	orr	r1, r2, r6, lsl #11
     e28:	e1811aa5 	orr	r1, r1, r5, lsr #21
     e2c:	e1a00585 	lsl	r0, r5, #11
     e30:	e1800aae 	orr	r0, r0, lr, lsr #21
     e34:	e1a0e58e 	lsl	lr, lr, #11
     e38:	e254c0fd 	subs	r12, r4, #253	; 0xfd
     e3c:	835c0c07 	cmphi	r12, #1792	; 0x700
     e40:	8a000011 	bhi	e8c <__aeabi_dmul+0xec>
     e44:	e35e0102 	cmp	lr, #-2147483648	; 0x80000000
     e48:	01b0e0a0 	lsrseq	lr, r0, #1
     e4c:	e2b00000 	adcs	r0, r0, #0
     e50:	e0a11a04 	adc	r1, r1, r4, lsl #20
     e54:	e8bd4070 	pop	{r4, r5, r6, lr}
     e58:	e12fff1e 	bx	lr
     e5c:	e2066102 	and	r6, r6, #-2147483648	; 0x80000000
     e60:	e1861001 	orr	r1, r6, r1
     e64:	e1800002 	orr	r0, r0, r2
     e68:	e0211003 	eor	r1, r1, r3
     e6c:	e05440ac 	subs	r4, r4, r12, lsr #1
     e70:	c074500c 	rsbsgt	r5, r4, r12
     e74:	c1811a04 	orrgt	r1, r1, r4, lsl #20
     e78:	c8bd4070 	popgt	{r4, r5, r6, lr}
     e7c:	c12fff1e 	bxgt	lr
     e80:	e3811601 	orr	r1, r1, #1048576	; 0x100000
     e84:	e3a0e000 	mov	lr, #0
     e88:	e2544001 	subs	r4, r4, #1
     e8c:	ca00005d 	bgt	1008 <__aeabi_dmul+0x268>
     e90:	e3740036 	cmn	r4, #54	; 0x36
     e94:	d3a00000 	movle	r0, #0
     e98:	d2011102 	andle	r1, r1, #-2147483648	; 0x80000000
     e9c:	d8bd4070 	pople	{r4, r5, r6, lr}
     ea0:	d12fff1e 	bxle	lr
     ea4:	e2644000 	rsb	r4, r4, #0
     ea8:	e2544020 	subs	r4, r4, #32
     eac:	aa00001a 	bge	f1c <__aeabi_dmul+0x17c>
     eb0:	e294400c 	adds	r4, r4, #12
     eb4:	ca00000c 	bgt	eec <__aeabi_dmul+0x14c>
     eb8:	e2844014 	add	r4, r4, #20
     ebc:	e2645020 	rsb	r5, r4, #32
     ec0:	e1a03510 	lsl	r3, r0, r5
     ec4:	e1a00430 	lsr	r0, r0, r4
     ec8:	e1800511 	orr	r0, r0, r1, lsl r5
     ecc:	e2012102 	and	r2, r1, #-2147483648	; 0x80000000
     ed0:	e3c11102 	bic	r1, r1, #-2147483648	; 0x80000000
     ed4:	e0900fa3 	adds	r0, r0, r3, lsr #31
     ed8:	e0a21431 	adc	r1, r2, r1, lsr r4
     edc:	e19ee083 	orrs	lr, lr, r3, lsl #1
     ee0:	01c00fa3 	biceq	r0, r0, r3, lsr #31
     ee4:	e8bd4070 	pop	{r4, r5, r6, lr}
     ee8:	e12fff1e 	bx	lr
     eec:	e264400c 	rsb	r4, r4, #12
     ef0:	e2645020 	rsb	r5, r4, #32
     ef4:	e1a03410 	lsl	r3, r0, r4
     ef8:	e1a00530 	lsr	r0, r0, r5
     efc:	e1800411 	orr	r0, r0, r1, lsl r4
     f00:	e2011102 	and	r1, r1, #-2147483648	; 0x80000000
     f04:	e0900fa3 	adds	r0, r0, r3, lsr #31
     f08:	e2a11000 	adc	r1, r1, #0
     f0c:	e19ee083 	orrs	lr, lr, r3, lsl #1
     f10:	01c00fa3 	biceq	r0, r0, r3, lsr #31
     f14:	e8bd4070 	pop	{r4, r5, r6, lr}
     f18:	e12fff1e 	bx	lr
     f1c:	e2645020 	rsb	r5, r4, #32
     f20:	e18ee510 	orr	lr, lr, r0, lsl r5
     f24:	e1a03430 	lsr	r3, r0, r4
     f28:	e1833511 	orr	r3, r3, r1, lsl r5
     f2c:	e1a00431 	lsr	r0, r1, r4
     f30:	e2011102 	and	r1, r1, #-2147483648	; 0x80000000
     f34:	e1c00431 	bic	r0, r0, r1, lsr r4
     f38:	e0800fa3 	add	r0, r0, r3, lsr #31
     f3c:	e19ee083 	orrs	lr, lr, r3, lsl #1
     f40:	01c00fa3 	biceq	r0, r0, r3, lsr #31
     f44:	e8bd4070 	pop	{r4, r5, r6, lr}
     f48:	e12fff1e 	bx	lr
     f4c:	e3340000 	teq	r4, #0
     f50:	1a000008 	bne	f78 <__aeabi_dmul+0x1d8>
     f54:	e2016102 	and	r6, r1, #-2147483648	; 0x80000000
     f58:	e1b00080 	lsls	r0, r0, #1
     f5c:	e0a11001 	adc	r1, r1, r1
     f60:	e3110601 	tst	r1, #1048576	; 0x100000
     f64:	02444001 	subeq	r4, r4, #1
     f68:	0afffffa 	beq	f58 <__aeabi_dmul+0x1b8>
     f6c:	e1811006 	orr	r1, r1, r6
     f70:	e3350000 	teq	r5, #0
     f74:	112fff1e 	bxne	lr
     f78:	e2036102 	and	r6, r3, #-2147483648	; 0x80000000
     f7c:	e1b02082 	lsls	r2, r2, #1
     f80:	e0a33003 	adc	r3, r3, r3
     f84:	e3130601 	tst	r3, #1048576	; 0x100000
     f88:	02455001 	subeq	r5, r5, #1
     f8c:	0afffffa 	beq	f7c <__aeabi_dmul+0x1dc>
     f90:	e1833006 	orr	r3, r3, r6
     f94:	e12fff1e 	bx	lr
     f98:	e134000c 	teq	r4, r12
     f9c:	e00c5a23 	and	r5, r12, r3, lsr #20
     fa0:	1135000c 	teqne	r5, r12
     fa4:	0a000007 	beq	fc8 <__aeabi_dmul+0x228>
     fa8:	e1906081 	orrs	r6, r0, r1, lsl #1
     fac:	11926083 	orrsne	r6, r2, r3, lsl #1
     fb0:	1affffe5 	bne	f4c <__aeabi_dmul+0x1ac>
     fb4:	e0211003 	eor	r1, r1, r3
     fb8:	e2011102 	and	r1, r1, #-2147483648	; 0x80000000
     fbc:	e3a00000 	mov	r0, #0
     fc0:	e8bd4070 	pop	{r4, r5, r6, lr}
     fc4:	e12fff1e 	bx	lr
     fc8:	e1906081 	orrs	r6, r0, r1, lsl #1
     fcc:	01a00002 	moveq	r0, r2
     fd0:	01a01003 	moveq	r1, r3
     fd4:	11926083 	orrsne	r6, r2, r3, lsl #1
     fd8:	0a000010 	beq	1020 <__aeabi_dmul+0x280>
     fdc:	e134000c 	teq	r4, r12
     fe0:	1a000001 	bne	fec <__aeabi_dmul+0x24c>
     fe4:	e1906601 	orrs	r6, r0, r1, lsl #12
     fe8:	1a00000c 	bne	1020 <__aeabi_dmul+0x280>
     fec:	e135000c 	teq	r5, r12
     ff0:	1a000003 	bne	1004 <__aeabi_dmul+0x264>
     ff4:	e1926603 	orrs	r6, r2, r3, lsl #12
     ff8:	11a00002 	movne	r0, r2
     ffc:	11a01003 	movne	r1, r3
    1000:	1a000006 	bne	1020 <__aeabi_dmul+0x280>
    1004:	e0211003 	eor	r1, r1, r3
    1008:	e2011102 	and	r1, r1, #-2147483648	; 0x80000000
    100c:	e381147f 	orr	r1, r1, #2130706432	; 0x7f000000
    1010:	e381160f 	orr	r1, r1, #15728640	; 0xf00000
    1014:	e3a00000 	mov	r0, #0
    1018:	e8bd4070 	pop	{r4, r5, r6, lr}
    101c:	e12fff1e 	bx	lr
    1020:	e381147f 	orr	r1, r1, #2130706432	; 0x7f000000
    1024:	e381173e 	orr	r1, r1, #16252928	; 0xf80000
    1028:	e8bd4070 	pop	{r4, r5, r6, lr}
    102c:	e12fff1e 	bx	lr

00001030 <__aeabi_ddiv>:
    1030:	e92d4070 	push	{r4, r5, r6, lr}
    1034:	e3a0c0ff 	mov	r12, #255	; 0xff
    1038:	e38ccc07 	orr	r12, r12, #1792	; 0x700
    103c:	e01c4a21 	ands	r4, r12, r1, lsr #20
    1040:	101c5a23 	andsne	r5, r12, r3, lsr #20
    1044:	1134000c 	teqne	r4, r12
    1048:	1135000c 	teqne	r5, r12
    104c:	0b00005e 	bleq	11cc <__aeabi_ddiv+0x19c>
    1050:	e0444005 	sub	r4, r4, r5
    1054:	e021e003 	eor	lr, r1, r3
    1058:	e1925603 	orrs	r5, r2, r3, lsl #12
    105c:	e1a01601 	lsl	r1, r1, #12
    1060:	0a00004c 	beq	1198 <__aeabi_ddiv+0x168>
    1064:	e1a03603 	lsl	r3, r3, #12
    1068:	e3a05201 	mov	r5, #268435456	; 0x10000000
    106c:	e1853223 	orr	r3, r5, r3, lsr #4
    1070:	e1833c22 	orr	r3, r3, r2, lsr #24
    1074:	e1a02402 	lsl	r2, r2, #8
    1078:	e1855221 	orr	r5, r5, r1, lsr #4
    107c:	e1855c20 	orr	r5, r5, r0, lsr #24
    1080:	e1a06400 	lsl	r6, r0, #8
    1084:	e20e1102 	and	r1, lr, #-2147483648	; 0x80000000
    1088:	e1550003 	cmp	r5, r3
    108c:	01560002 	cmpeq	r6, r2
    1090:	e2a440fd 	adc	r4, r4, #253	; 0xfd
    1094:	e2844c03 	add	r4, r4, #768	; 0x300
    1098:	2a000001 	bcs	10a4 <__aeabi_ddiv+0x74>
    109c:	e1b030a3 	lsrs	r3, r3, #1
    10a0:	e1a02062 	rrx	r2, r2
    10a4:	e0566002 	subs	r6, r6, r2
    10a8:	e0c55003 	sbc	r5, r5, r3
    10ac:	e1b030a3 	lsrs	r3, r3, #1
    10b0:	e1a02062 	rrx	r2, r2
    10b4:	e3a00601 	mov	r0, #1048576	; 0x100000
    10b8:	e3a0c702 	mov	r12, #524288	; 0x80000
    10bc:	e056e002 	subs	lr, r6, r2
    10c0:	e0d5e003 	sbcs	lr, r5, r3
    10c4:	20466002 	subcs	r6, r6, r2
    10c8:	21a0500e 	movcs	r5, lr
    10cc:	2180000c 	orrcs	r0, r0, r12
    10d0:	e1b030a3 	lsrs	r3, r3, #1
    10d4:	e1a02062 	rrx	r2, r2
    10d8:	e056e002 	subs	lr, r6, r2
    10dc:	e0d5e003 	sbcs	lr, r5, r3
    10e0:	20466002 	subcs	r6, r6, r2
    10e4:	21a0500e 	movcs	r5, lr
    10e8:	218000ac 	orrcs	r0, r0, r12, lsr #1
    10ec:	e1b030a3 	lsrs	r3, r3, #1
    10f0:	e1a02062 	rrx	r2, r2
    10f4:	e056e002 	subs	lr, r6, r2
    10f8:	e0d5e003 	sbcs	lr, r5, r3
    10fc:	20466002 	subcs	r6, r6, r2
    1100:	21a0500e 	movcs	r5, lr
    1104:	2180012c 	orrcs	r0, r0, r12, lsr #2
    1108:	e1b030a3 	lsrs	r3, r3, #1
    110c:	e1a02062 	rrx	r2, r2
    1110:	e056e002 	subs	lr, r6, r2
    1114:	e0d5e003 	sbcs	lr, r5, r3
    1118:	20466002 	subcs	r6, r6, r2
    111c:	21a0500e 	movcs	r5, lr
    1120:	218001ac 	orrcs	r0, r0, r12, lsr #3
    1124:	e195e006 	orrs	lr, r5, r6
    1128:	0a00000d 	beq	1164 <__aeabi_ddiv+0x134>
    112c:	e1a05205 	lsl	r5, r5, #4
    1130:	e1855e26 	orr	r5, r5, r6, lsr #28
    1134:	e1a06206 	lsl	r6, r6, #4
    1138:	e1a03183 	lsl	r3, r3, #3
    113c:	e1833ea2 	orr	r3, r3, r2, lsr #29
    1140:	e1a02182 	lsl	r2, r2, #3
    1144:	e1b0c22c 	lsrs	r12, r12, #4
    1148:	1affffdb 	bne	10bc <__aeabi_ddiv+0x8c>
    114c:	e3110601 	tst	r1, #1048576	; 0x100000
    1150:	1a000006 	bne	1170 <__aeabi_ddiv+0x140>
    1154:	e1811000 	orr	r1, r1, r0
    1158:	e3a00000 	mov	r0, #0
    115c:	e3a0c102 	mov	r12, #-2147483648	; 0x80000000
    1160:	eaffffd5 	b	10bc <__aeabi_ddiv+0x8c>
    1164:	e3110601 	tst	r1, #1048576	; 0x100000
    1168:	01811000 	orreq	r1, r1, r0
    116c:	03a00000 	moveq	r0, #0
    1170:	e254c0fd 	subs	r12, r4, #253	; 0xfd
    1174:	835c0c07 	cmphi	r12, #1792	; 0x700
    1178:	8affff43 	bhi	e8c <__aeabi_dmul+0xec>
    117c:	e055c003 	subs	r12, r5, r3
    1180:	0056c002 	subseq	r12, r6, r2
    1184:	01b0c0a0 	lsrseq	r12, r0, #1
    1188:	e2b00000 	adcs	r0, r0, #0
    118c:	e0a11a04 	adc	r1, r1, r4, lsl #20
    1190:	e8bd4070 	pop	{r4, r5, r6, lr}
    1194:	e12fff1e 	bx	lr
    1198:	e20ee102 	and	lr, lr, #-2147483648	; 0x80000000
    119c:	e18e1621 	orr	r1, lr, r1, lsr #12
    11a0:	e09440ac 	adds	r4, r4, r12, lsr #1
    11a4:	c074500c 	rsbsgt	r5, r4, r12
    11a8:	c1811a04 	orrgt	r1, r1, r4, lsl #20
    11ac:	c8bd4070 	popgt	{r4, r5, r6, lr}
    11b0:	c12fff1e 	bxgt	lr
    11b4:	e3811601 	orr	r1, r1, #1048576	; 0x100000
    11b8:	e3a0e000 	mov	lr, #0
    11bc:	e2544001 	subs	r4, r4, #1
    11c0:	eaffff31 	b	e8c <__aeabi_dmul+0xec>
    11c4:	e185e006 	orr	lr, r5, r6
    11c8:	eaffff2f 	b	e8c <__aeabi_dmul+0xec>
    11cc:	e00c5a23 	and	r5, r12, r3, lsr #20
    11d0:	e134000c 	teq	r4, r12
    11d4:	0135000c 	teqeq	r5, r12
    11d8:	0affff90 	beq	1020 <__aeabi_dmul+0x280>
    11dc:	e134000c 	teq	r4, r12
    11e0:	1a000006 	bne	1200 <__aeabi_ddiv+0x1d0>
    11e4:	e1904601 	orrs	r4, r0, r1, lsl #12
    11e8:	1affff8c 	bne	1020 <__aeabi_dmul+0x280>
    11ec:	e135000c 	teq	r5, r12
    11f0:	1affff83 	bne	1004 <__aeabi_dmul+0x264>
    11f4:	e1a00002 	mov	r0, r2
    11f8:	e1a01003 	mov	r1, r3
    11fc:	eaffff87 	b	1020 <__aeabi_dmul+0x280>
    1200:	e135000c 	teq	r5, r12
    1204:	1a000004 	bne	121c <__aeabi_ddiv+0x1ec>
    1208:	e1925603 	orrs	r5, r2, r3, lsl #12
    120c:	0affff68 	beq	fb4 <__aeabi_dmul+0x214>
    1210:	e1a00002 	mov	r0, r2
    1214:	e1a01003 	mov	r1, r3
    1218:	eaffff80 	b	1020 <__aeabi_dmul+0x280>
    121c:	e1906081 	orrs	r6, r0, r1, lsl #1
    1220:	11926083 	orrsne	r6, r2, r3, lsl #1
    1224:	1affff48 	bne	f4c <__aeabi_dmul+0x1ac>
    1228:	e1904081 	orrs	r4, r0, r1, lsl #1
    122c:	1affff74 	bne	1004 <__aeabi_dmul+0x264>
    1230:	e1925083 	orrs	r5, r2, r3, lsl #1
    1234:	1affff5e 	bne	fb4 <__aeabi_dmul+0x214>
    1238:	eaffff78 	b	1020 <__aeabi_dmul+0x280>

0000123c <__gedf2>:
    123c:	e3e0c000 	mvn	r12, #0
    1240:	ea000002 	b	1250 <__cmpdf2+0x4>

00001244 <__ledf2>:
    1244:	e3a0c001 	mov	r12, #1
    1248:	ea000000 	b	1250 <__cmpdf2+0x4>

0000124c <__cmpdf2>:
    124c:	e3a0c001 	mov	r12, #1
    1250:	e52dc004 	push	{r12}		; (str r12, [sp, #-4]!)
    1254:	e1a0c081 	lsl	r12, r1, #1
    1258:	e1f0cacc 	mvns	r12, r12, asr #21
    125c:	e1a0c083 	lsl	r12, r3, #1
    1260:	11f0cacc 	mvnsne	r12, r12, asr #21
    1264:	0a00000e 	beq	12a4 <__cmpdf2+0x58>
    1268:	e28dd004 	add	sp, sp, #4
    126c:	e190c081 	orrs	r12, r0, r1, lsl #1
    1270:	0192c083 	orrseq	r12, r2, r3, lsl #1
    1274:	11310003 	teqne	r1, r3
    1278:	01300002 	teqeq	r0, r2
    127c:	03a00000 	moveq	r0, #0
    1280:	012fff1e 	bxeq	lr
    1284:	e3700000 	cmn	r0, #0
    1288:	e1310003 	teq	r1, r3
    128c:	51510003 	cmppl	r1, r3
    1290:	01500002 	cmpeq	r0, r2
    1294:	21a00fc3 	asrcs	r0, r3, #31
    1298:	31e00fc3 	mvncc	r0, r3, asr #31
    129c:	e3800001 	orr	r0, r0, #1
    12a0:	e12fff1e 	bx	lr
    12a4:	e1a0c081 	lsl	r12, r1, #1
    12a8:	e1f0cacc 	mvns	r12, r12, asr #21
    12ac:	1a000001 	bne	12b8 <__cmpdf2+0x6c>
    12b0:	e190c601 	orrs	r12, r0, r1, lsl #12
    12b4:	1a000004 	bne	12cc <__cmpdf2+0x80>
    12b8:	e1a0c083 	lsl	r12, r3, #1
    12bc:	e1f0cacc 	mvns	r12, r12, asr #21
    12c0:	1affffe8 	bne	1268 <__cmpdf2+0x1c>
    12c4:	e192c603 	orrs	r12, r2, r3, lsl #12
    12c8:	0affffe6 	beq	1268 <__cmpdf2+0x1c>
    12cc:	e49d0004 	pop	{r0}		; (ldr r0, [sp], #4)
    12d0:	e12fff1e 	bx	lr

000012d4 <__aeabi_cdrcmple>:
    12d4:	e1a0c000 	mov	r12, r0
    12d8:	e1a00002 	mov	r0, r2
    12dc:	e1a0200c 	mov	r2, r12
    12e0:	e1a0c001 	mov	r12, r1
    12e4:	e1a01003 	mov	r1, r3
    12e8:	e1a0300c 	mov	r3, r12
    12ec:	eaffffff 	b	12f0 <__aeabi_cdcmpeq>

000012f0 <__aeabi_cdcmpeq>:
    12f0:	e92d4001 	push	{r0, lr}
    12f4:	ebffffd4 	bl	124c <__cmpdf2>
    12f8:	e3500000 	cmp	r0, #0
    12fc:	43700000 	cmnmi	r0, #0
    1300:	e8bd4001 	pop	{r0, lr}
    1304:	e12fff1e 	bx	lr

00001308 <__aeabi_dcmpeq>:
    1308:	e52de008 	str	lr, [sp, #-8]!
    130c:	ebfffff7 	bl	12f0 <__aeabi_cdcmpeq>
    1310:	03a00001 	moveq	r0, #1
    1314:	13a00000 	movne	r0, #0
    1318:	e49de008 	ldr	lr, [sp], #8
    131c:	e12fff1e 	bx	lr

00001320 <__aeabi_dcmplt>:
    1320:	e52de008 	str	lr, [sp, #-8]!
    1324:	ebfffff1 	bl	12f0 <__aeabi_cdcmpeq>
    1328:	33a00001 	movcc	r0, #1
    132c:	23a00000 	movcs	r0, #0
    1330:	e49de008 	ldr	lr, [sp], #8
    1334:	e12fff1e 	bx	lr

00001338 <__aeabi_dcmple>:
    1338:	e52de008 	str	lr, [sp, #-8]!
    133c:	ebffffeb 	bl	12f0 <__aeabi_cdcmpeq>
    1340:	93a00001 	movls	r0, #1
    1344:	83a00000 	movhi	r0, #0
    1348:	e49de008 	ldr	lr, [sp], #8
    134c:	e12fff1e 	bx	lr

00001350 <__aeabi_dcmpge>:
    1350:	e52de008 	str	lr, [sp, #-8]!
    1354:	ebffffde 	bl	12d4 <__aeabi_cdrcmple>
    1358:	93a00001 	movls	r0, #1
    135c:	83a00000 	movhi	r0, #0
    1360:	e49de008 	ldr	lr, [sp], #8
    1364:	e12fff1e 	bx	lr

00001368 <__aeabi_dcmpgt>:
    1368:	e52de008 	str	lr, [sp, #-8]!
    136c:	ebffffd8 	bl	12d4 <__aeabi_cdrcmple>
    1370:	33a00001 	movcc	r0, #1
    1374:	23a00000 	movcs	r0, #0
    1378:	e49de008 	ldr	lr, [sp], #8
    137c:	e12fff1e 	bx	lr

00001380 <__aeabi_d2f>:
    1380:	e1a02081 	lsl	r2, r1, #1
    1384:	e2523207 	subs	r3, r2, #1879048192	; 0x70000000
    1388:	2253c602 	subscs	r12, r3, #2097152	; 0x200000
    138c:	227cc57f 	rsbscs	r12, r12, #532676608	; 0x1fc00000
    1390:	9a000006 	bls	13b0 <__aeabi_d2f+0x30>
    1394:	e201c102 	and	r12, r1, #-2147483648	; 0x80000000
    1398:	e1a02180 	lsl	r2, r0, #3
    139c:	e18c0ea0 	orr	r0, r12, r0, lsr #29
    13a0:	e3520102 	cmp	r2, #-2147483648	; 0x80000000
    13a4:	e0a00103 	adc	r0, r0, r3, lsl #2
    13a8:	03c00001 	biceq	r0, r0, #1
    13ac:	e12fff1e 	bx	lr
    13b0:	e3110101 	tst	r1, #1073741824	; 0x40000000
    13b4:	1a00000f 	bne	13f8 <__aeabi_d2f+0x78>
    13b8:	e293262e 	adds	r2, r3, #48234496	; 0x2e00000
    13bc:	b2010102 	andlt	r0, r1, #-2147483648	; 0x80000000
    13c0:	b12fff1e 	bxlt	lr
    13c4:	e3811601 	orr	r1, r1, #1048576	; 0x100000
    13c8:	e1a02aa2 	lsr	r2, r2, #21
    13cc:	e2622018 	rsb	r2, r2, #24
    13d0:	e262c020 	rsb	r12, r2, #32
    13d4:	e1b03c10 	lsls	r3, r0, r12
    13d8:	e1a00230 	lsr	r0, r0, r2
    13dc:	13800001 	orrne	r0, r0, #1
    13e0:	e1a03581 	lsl	r3, r1, #11
    13e4:	e1a035a3 	lsr	r3, r3, #11
    13e8:	e1800c13 	orr	r0, r0, r3, lsl r12
    13ec:	e1a03233 	lsr	r3, r3, r2
    13f0:	e1a03083 	lsl	r3, r3, #1
    13f4:	eaffffe6 	b	1394 <__aeabi_d2f+0x14>
    13f8:	e1f03ac2 	mvns	r3, r2, asr #21
    13fc:	1a000003 	bne	1410 <__aeabi_d2f+0x90>
    1400:	e1903601 	orrs	r3, r0, r1, lsl #12
    1404:	13a0047f 	movne	r0, #2130706432	; 0x7f000000
    1408:	13800503 	orrne	r0, r0, #12582912	; 0xc00000
    140c:	112fff1e 	bxne	lr
    1410:	e2010102 	and	r0, r1, #-2147483648	; 0x80000000
    1414:	e380047f 	orr	r0, r0, #2130706432	; 0x7f000000
    1418:	e3800502 	orr	r0, r0, #8388608	; 0x800000
    141c:	e12fff1e 	bx	lr

00001420 <__aeabi_frsub>:
    1420:	e2200102 	eor	r0, r0, #-2147483648	; 0x80000000
    1424:	ea000000 	b	142c <__addsf3>

00001428 <__aeabi_fsub>:
    1428:	e2211102 	eor	r1, r1, #-2147483648	; 0x80000000

0000142c <__addsf3>:
    142c:	e1b02080 	lsls	r2, r0, #1
    1430:	11b03081 	lslsne	r3, r1, #1
    1434:	11320003 	teqne	r2, r3
    1438:	11f0cc42 	mvnsne	r12, r2, asr #24
    143c:	11f0cc43 	mvnsne	r12, r3, asr #24
    1440:	0a000047 	beq	1564 <__addsf3+0x138>
    1444:	e1a02c22 	lsr	r2, r2, #24
    1448:	e0723c23 	rsbs	r3, r2, r3, lsr #24
    144c:	c0822003 	addgt	r2, r2, r3
    1450:	c0201001 	eorgt	r1, r0, r1
    1454:	c0210000 	eorgt	r0, r1, r0
    1458:	c0201001 	eorgt	r1, r0, r1
    145c:	b2633000 	rsblt	r3, r3, #0
    1460:	e3530019 	cmp	r3, #25
    1464:	812fff1e 	bxhi	lr
    1468:	e3100102 	tst	r0, #-2147483648	; 0x80000000
    146c:	e3800502 	orr	r0, r0, #8388608	; 0x800000
    1470:	e3c004ff 	bic	r0, r0, #-16777216	; 0xff000000
    1474:	12600000 	rsbne	r0, r0, #0
    1478:	e3110102 	tst	r1, #-2147483648	; 0x80000000
    147c:	e3811502 	orr	r1, r1, #8388608	; 0x800000
    1480:	e3c114ff 	bic	r1, r1, #-16777216	; 0xff000000
    1484:	12611000 	rsbne	r1, r1, #0
    1488:	e1320003 	teq	r2, r3
    148c:	0a00002e 	beq	154c <__addsf3+0x120>
    1490:	e2422001 	sub	r2, r2, #1
    1494:	e0900351 	adds	r0, r0, r1, asr r3
    1498:	e2633020 	rsb	r3, r3, #32
    149c:	e1a01311 	lsl	r1, r1, r3
    14a0:	e2003102 	and	r3, r0, #-2147483648	; 0x80000000
    14a4:	5a000001 	bpl	14b0 <__addsf3+0x84>
    14a8:	e2711000 	rsbs	r1, r1, #0
    14ac:	e2e00000 	rsc	r0, r0, #0
    14b0:	e3500502 	cmp	r0, #8388608	; 0x800000
    14b4:	3a00000b 	bcc	14e8 <__addsf3+0xbc>
    14b8:	e3500401 	cmp	r0, #16777216	; 0x1000000
    14bc:	3a000004 	bcc	14d4 <__addsf3+0xa8>
    14c0:	e1b000a0 	lsrs	r0, r0, #1
    14c4:	e1a01061 	rrx	r1, r1
    14c8:	e2822001 	add	r2, r2, #1
    14cc:	e35200fe 	cmp	r2, #254	; 0xfe
    14d0:	2a000038 	bcs	15b8 <__addsf3+0x18c>
    14d4:	e3510102 	cmp	r1, #-2147483648	; 0x80000000
    14d8:	e0a00b82 	adc	r0, r0, r2, lsl #23
    14dc:	03c00001 	biceq	r0, r0, #1
    14e0:	e1800003 	orr	r0, r0, r3
    14e4:	e12fff1e 	bx	lr
    14e8:	e1b01081 	lsls	r1, r1, #1
    14ec:	e0a00000 	adc	r0, r0, r0
    14f0:	e3100502 	tst	r0, #8388608	; 0x800000
    14f4:	e2422001 	sub	r2, r2, #1
    14f8:	1afffff5 	bne	14d4 <__addsf3+0xa8>
    14fc:	e1b0c620 	lsrs	r12, r0, #12
    1500:	01a00600 	lsleq	r0, r0, #12
    1504:	0242200c 	subeq	r2, r2, #12
    1508:	e31008ff 	tst	r0, #16711680	; 0xff0000
    150c:	01a00400 	lsleq	r0, r0, #8
    1510:	02422008 	subeq	r2, r2, #8
    1514:	e310060f 	tst	r0, #15728640	; 0xf00000
    1518:	01a00200 	lsleq	r0, r0, #4
    151c:	02422004 	subeq	r2, r2, #4
    1520:	e3100503 	tst	r0, #12582912	; 0xc00000
    1524:	01a00100 	lsleq	r0, r0, #2
    1528:	02422002 	subeq	r2, r2, #2
    152c:	e3500502 	cmp	r0, #8388608	; 0x800000
    1530:	31a00080 	lslcc	r0, r0, #1
    1534:	e2d22000 	sbcs	r2, r2, #0
    1538:	a0800b82 	addge	r0, r0, r2, lsl #23
    153c:	b2622000 	rsblt	r2, r2, #0
    1540:	a1800003 	orrge	r0, r0, r3
    1544:	b1830230 	orrlt	r0, r3, r0, lsr r2
    1548:	e12fff1e 	bx	lr
    154c:	e3320000 	teq	r2, #0
    1550:	e2211502 	eor	r1, r1, #8388608	; 0x800000
    1554:	02200502 	eoreq	r0, r0, #8388608	; 0x800000
    1558:	02822001 	addeq	r2, r2, #1
    155c:	12433001 	subne	r3, r3, #1
    1560:	eaffffca 	b	1490 <__addsf3+0x64>
    1564:	e1a03081 	lsl	r3, r1, #1
    1568:	e1f0cc42 	mvns	r12, r2, asr #24
    156c:	11f0cc43 	mvnsne	r12, r3, asr #24
    1570:	0a000013 	beq	15c4 <__addsf3+0x198>
    1574:	e1320003 	teq	r2, r3
    1578:	0a000002 	beq	1588 <__addsf3+0x15c>
    157c:	e3320000 	teq	r2, #0
    1580:	01a00001 	moveq	r0, r1
    1584:	e12fff1e 	bx	lr
    1588:	e1300001 	teq	r0, r1
    158c:	13a00000 	movne	r0, #0
    1590:	112fff1e 	bxne	lr
    1594:	e31204ff 	tst	r2, #-16777216	; 0xff000000
    1598:	1a000002 	bne	15a8 <__addsf3+0x17c>
    159c:	e1b00080 	lsls	r0, r0, #1
    15a0:	23800102 	orrcs	r0, r0, #-2147483648	; 0x80000000
    15a4:	e12fff1e 	bx	lr
    15a8:	e2922402 	adds	r2, r2, #33554432	; 0x2000000
    15ac:	32800502 	addcc	r0, r0, #8388608	; 0x800000
    15b0:	312fff1e 	bxcc	lr
    15b4:	e2003102 	and	r3, r0, #-2147483648	; 0x80000000
    15b8:	e383047f 	orr	r0, r3, #2130706432	; 0x7f000000
    15bc:	e3800502 	orr	r0, r0, #8388608	; 0x800000
    15c0:	e12fff1e 	bx	lr
    15c4:	e1f02c42 	mvns	r2, r2, asr #24
    15c8:	11a00001 	movne	r0, r1
    15cc:	01f03c43 	mvnseq	r3, r3, asr #24
    15d0:	11a01000 	movne	r1, r0
    15d4:	e1b02480 	lsls	r2, r0, #9
    15d8:	01b03481 	lslseq	r3, r1, #9
    15dc:	01300001 	teqeq	r0, r1
    15e0:	13800501 	orrne	r0, r0, #4194304	; 0x400000
    15e4:	e12fff1e 	bx	lr

000015e8 <__aeabi_ui2f>:
    15e8:	e3a03000 	mov	r3, #0
    15ec:	ea000001 	b	15f8 <__aeabi_i2f+0x8>

000015f0 <__aeabi_i2f>:
    15f0:	e2103102 	ands	r3, r0, #-2147483648	; 0x80000000
    15f4:	42600000 	rsbmi	r0, r0, #0
    15f8:	e1b0c000 	movs	r12, r0
    15fc:	012fff1e 	bxeq	lr
    1600:	e383344b 	orr	r3, r3, #1258291200	; 0x4b000000
    1604:	e1a01000 	mov	r1, r0
    1608:	e3a00000 	mov	r0, #0
    160c:	ea00000f 	b	1650 <__aeabi_l2f+0x30>

00001610 <__aeabi_ul2f>:
    1610:	e1902001 	orrs	r2, r0, r1
    1614:	012fff1e 	bxeq	lr
    1618:	e3a03000 	mov	r3, #0
    161c:	ea000005 	b	1638 <__aeabi_l2f+0x18>

00001620 <__aeabi_l2f>:
    1620:	e1902001 	orrs	r2, r0, r1
    1624:	012fff1e 	bxeq	lr
    1628:	e2113102 	ands	r3, r1, #-2147483648	; 0x80000000
    162c:	5a000001 	bpl	1638 <__aeabi_l2f+0x18>
    1630:	e2700000 	rsbs	r0, r0, #0
    1634:	e2e11000 	rsc	r1, r1, #0
    1638:	e1b0c001 	movs	r12, r1
    163c:	01a0c000 	moveq	r12, r0
    1640:	01a01000 	moveq	r1, r0
    1644:	03a00000 	moveq	r0, #0
    1648:	e383345b 	orr	r3, r3, #1526726656	; 0x5b000000
    164c:	02433201 	subeq	r3, r3, #268435456	; 0x10000000
    1650:	e2433502 	sub	r3, r3, #8388608	; 0x800000
    1654:	e3a02017 	mov	r2, #23
    1658:	e35c0801 	cmp	r12, #65536	; 0x10000
    165c:	21a0c82c 	lsrcs	r12, r12, #16
    1660:	22422010 	subcs	r2, r2, #16
    1664:	e35c0c01 	cmp	r12, #256	; 0x100
    1668:	21a0c42c 	lsrcs	r12, r12, #8
    166c:	22422008 	subcs	r2, r2, #8
    1670:	e35c0010 	cmp	r12, #16
    1674:	21a0c22c 	lsrcs	r12, r12, #4
    1678:	22422004 	subcs	r2, r2, #4
    167c:	e35c0004 	cmp	r12, #4
    1680:	22422002 	subcs	r2, r2, #2
    1684:	304220ac 	subcc	r2, r2, r12, lsr #1
    1688:	e05221ac 	subs	r2, r2, r12, lsr #3
    168c:	e0433b82 	sub	r3, r3, r2, lsl #23
    1690:	ba000006 	blt	16b0 <__aeabi_l2f+0x90>
    1694:	e0833211 	add	r3, r3, r1, lsl r2
    1698:	e1a0c210 	lsl	r12, r0, r2
    169c:	e2622020 	rsb	r2, r2, #32
    16a0:	e35c0102 	cmp	r12, #-2147483648	; 0x80000000
    16a4:	e0a30230 	adc	r0, r3, r0, lsr r2
    16a8:	03c00001 	biceq	r0, r0, #1
    16ac:	e12fff1e 	bx	lr
    16b0:	e2822020 	add	r2, r2, #32
    16b4:	e1a0c211 	lsl	r12, r1, r2
    16b8:	e2622020 	rsb	r2, r2, #32
    16bc:	e190008c 	orrs	r0, r0, r12, lsl #1
    16c0:	e0a30231 	adc	r0, r3, r1, lsr r2
    16c4:	01c00fac 	biceq	r0, r0, r12, lsr #31
    16c8:	e12fff1e 	bx	lr

000016cc <__aeabi_fmul>:
    16cc:	e3a0c0ff 	mov	r12, #255	; 0xff
    16d0:	e01c2ba0 	ands	r2, r12, r0, lsr #23
    16d4:	101c3ba1 	andsne	r3, r12, r1, lsr #23
    16d8:	1132000c 	teqne	r2, r12
    16dc:	1133000c 	teqne	r3, r12
    16e0:	0a00003e 	beq	17e0 <__aeabi_fmul+0x114>
    16e4:	e0822003 	add	r2, r2, r3
    16e8:	e020c001 	eor	r12, r0, r1
    16ec:	e1b00480 	lsls	r0, r0, #9
    16f0:	11b01481 	lslsne	r1, r1, #9
    16f4:	0a000010 	beq	173c <__aeabi_fmul+0x70>
    16f8:	e3a03302 	mov	r3, #134217728	; 0x8000000
    16fc:	e18302a0 	orr	r0, r3, r0, lsr #5
    1700:	e18312a1 	orr	r1, r3, r1, lsr #5
    1704:	e0813190 	umull	r3, r1, r0, r1
    1708:	e20c0102 	and	r0, r12, #-2147483648	; 0x80000000
    170c:	e3510502 	cmp	r1, #8388608	; 0x800000
    1710:	31a01081 	lslcc	r1, r1, #1
    1714:	31811fa3 	orrcc	r1, r1, r3, lsr #31
    1718:	31a03083 	lslcc	r3, r3, #1
    171c:	e1800001 	orr	r0, r0, r1
    1720:	e2c2207f 	sbc	r2, r2, #127	; 0x7f
    1724:	e35200fd 	cmp	r2, #253	; 0xfd
    1728:	8a00000f 	bhi	176c <__aeabi_fmul+0xa0>
    172c:	e3530102 	cmp	r3, #-2147483648	; 0x80000000
    1730:	e0a00b82 	adc	r0, r0, r2, lsl #23
    1734:	03c00001 	biceq	r0, r0, #1
    1738:	e12fff1e 	bx	lr
    173c:	e3300000 	teq	r0, #0
    1740:	e20cc102 	and	r12, r12, #-2147483648	; 0x80000000
    1744:	01a01481 	lsleq	r1, r1, #9
    1748:	e18c04a0 	orr	r0, r12, r0, lsr #9
    174c:	e18004a1 	orr	r0, r0, r1, lsr #9
    1750:	e252207f 	subs	r2, r2, #127	; 0x7f
    1754:	c27230ff 	rsbsgt	r3, r2, #255	; 0xff
    1758:	c1800b82 	orrgt	r0, r0, r2, lsl #23
    175c:	c12fff1e 	bxgt	lr
    1760:	e3800502 	orr	r0, r0, #8388608	; 0x800000
    1764:	e3a03000 	mov	r3, #0
    1768:	e2522001 	subs	r2, r2, #1
    176c:	ca000035 	bgt	1848 <__aeabi_fmul+0x17c>
    1770:	e3720019 	cmn	r2, #25
    1774:	d2000102 	andle	r0, r0, #-2147483648	; 0x80000000
    1778:	d12fff1e 	bxle	lr
    177c:	e2622000 	rsb	r2, r2, #0
    1780:	e1b01080 	lsls	r1, r0, #1
    1784:	e1a01231 	lsr	r1, r1, r2
    1788:	e2622020 	rsb	r2, r2, #32
    178c:	e1a0c210 	lsl	r12, r0, r2
    1790:	e1b00061 	rrxs	r0, r1
    1794:	e2a00000 	adc	r0, r0, #0
    1798:	e193308c 	orrs	r3, r3, r12, lsl #1
    179c:	01c00fac 	biceq	r0, r0, r12, lsr #31
    17a0:	e12fff1e 	bx	lr
    17a4:	e3320000 	teq	r2, #0
    17a8:	e200c102 	and	r12, r0, #-2147483648	; 0x80000000
    17ac:	01a00080 	lsleq	r0, r0, #1
    17b0:	03100502 	tsteq	r0, #8388608	; 0x800000
    17b4:	02422001 	subeq	r2, r2, #1
    17b8:	0afffffb 	beq	17ac <__aeabi_fmul+0xe0>
    17bc:	e180000c 	orr	r0, r0, r12
    17c0:	e3330000 	teq	r3, #0
    17c4:	e201c102 	and	r12, r1, #-2147483648	; 0x80000000
    17c8:	01a01081 	lsleq	r1, r1, #1
    17cc:	03110502 	tsteq	r1, #8388608	; 0x800000
    17d0:	02433001 	subeq	r3, r3, #1
    17d4:	0afffffb 	beq	17c8 <__aeabi_fmul+0xfc>
    17d8:	e181100c 	orr	r1, r1, r12
    17dc:	eaffffc0 	b	16e4 <__aeabi_fmul+0x18>
    17e0:	e00c3ba1 	and	r3, r12, r1, lsr #23
    17e4:	e132000c 	teq	r2, r12
    17e8:	1133000c 	teqne	r3, r12
    17ec:	0a000005 	beq	1808 <__aeabi_fmul+0x13c>
    17f0:	e3d0c102 	bics	r12, r0, #-2147483648	; 0x80000000
    17f4:	13d1c102 	bicsne	r12, r1, #-2147483648	; 0x80000000
    17f8:	1affffe9 	bne	17a4 <__aeabi_fmul+0xd8>
    17fc:	e0200001 	eor	r0, r0, r1
    1800:	e2000102 	and	r0, r0, #-2147483648	; 0x80000000
    1804:	e12fff1e 	bx	lr
    1808:	e3300000 	teq	r0, #0
    180c:	13300102 	teqne	r0, #-2147483648	; 0x80000000
    1810:	01a00001 	moveq	r0, r1
    1814:	13310000 	teqne	r1, #0
    1818:	13310102 	teqne	r1, #-2147483648	; 0x80000000
    181c:	0a00000d 	beq	1858 <__aeabi_fmul+0x18c>
    1820:	e132000c 	teq	r2, r12
    1824:	1a000001 	bne	1830 <__aeabi_fmul+0x164>
    1828:	e1b02480 	lsls	r2, r0, #9
    182c:	1a000009 	bne	1858 <__aeabi_fmul+0x18c>
    1830:	e133000c 	teq	r3, r12
    1834:	1a000002 	bne	1844 <__aeabi_fmul+0x178>
    1838:	e1b03481 	lsls	r3, r1, #9
    183c:	11a00001 	movne	r0, r1
    1840:	1a000004 	bne	1858 <__aeabi_fmul+0x18c>
    1844:	e0200001 	eor	r0, r0, r1
    1848:	e2000102 	and	r0, r0, #-2147483648	; 0x80000000
    184c:	e380047f 	orr	r0, r0, #2130706432	; 0x7f000000
    1850:	e3800502 	orr	r0, r0, #8388608	; 0x800000
    1854:	e12fff1e 	bx	lr
    1858:	e380047f 	orr	r0, r0, #2130706432	; 0x7f000000
    185c:	e3800503 	orr	r0, r0, #12582912	; 0xc00000
    1860:	e12fff1e 	bx	lr

00001864 <__aeabi_fdiv>:
    1864:	e3a0c0ff 	mov	r12, #255	; 0xff
    1868:	e01c2ba0 	ands	r2, r12, r0, lsr #23
    186c:	101c3ba1 	andsne	r3, r12, r1, lsr #23
    1870:	1132000c 	teqne	r2, r12
    1874:	1133000c 	teqne	r3, r12
    1878:	0a00003a 	beq	1968 <__aeabi_fdiv+0x104>
    187c:	e0422003 	sub	r2, r2, r3
    1880:	e020c001 	eor	r12, r0, r1
    1884:	e1b01481 	lsls	r1, r1, #9
    1888:	e1a00480 	lsl	r0, r0, #9
    188c:	0a00001c 	beq	1904 <__aeabi_fdiv+0xa0>
    1890:	e3a03201 	mov	r3, #268435456	; 0x10000000
    1894:	e1831221 	orr	r1, r3, r1, lsr #4
    1898:	e1833220 	orr	r3, r3, r0, lsr #4
    189c:	e20c0102 	and	r0, r12, #-2147483648	; 0x80000000
    18a0:	e1530001 	cmp	r3, r1
    18a4:	31a03083 	lslcc	r3, r3, #1
    18a8:	e2a2207d 	adc	r2, r2, #125	; 0x7d
    18ac:	e3a0c502 	mov	r12, #8388608	; 0x800000
    18b0:	e1530001 	cmp	r3, r1
    18b4:	20433001 	subcs	r3, r3, r1
    18b8:	2180000c 	orrcs	r0, r0, r12
    18bc:	e15300a1 	cmp	r3, r1, lsr #1
    18c0:	204330a1 	subcs	r3, r3, r1, lsr #1
    18c4:	218000ac 	orrcs	r0, r0, r12, lsr #1
    18c8:	e1530121 	cmp	r3, r1, lsr #2
    18cc:	20433121 	subcs	r3, r3, r1, lsr #2
    18d0:	2180012c 	orrcs	r0, r0, r12, lsr #2
    18d4:	e15301a1 	cmp	r3, r1, lsr #3
    18d8:	204331a1 	subcs	r3, r3, r1, lsr #3
    18dc:	218001ac 	orrcs	r0, r0, r12, lsr #3
    18e0:	e1b03203 	lsls	r3, r3, #4
    18e4:	11b0c22c 	lsrsne	r12, r12, #4
    18e8:	1afffff0 	bne	18b0 <__aeabi_fdiv+0x4c>
    18ec:	e35200fd 	cmp	r2, #253	; 0xfd
    18f0:	8affff9d 	bhi	176c <__aeabi_fmul+0xa0>
    18f4:	e1530001 	cmp	r3, r1
    18f8:	e0a00b82 	adc	r0, r0, r2, lsl #23
    18fc:	03c00001 	biceq	r0, r0, #1
    1900:	e12fff1e 	bx	lr
    1904:	e20cc102 	and	r12, r12, #-2147483648	; 0x80000000
    1908:	e18c04a0 	orr	r0, r12, r0, lsr #9
    190c:	e292207f 	adds	r2, r2, #127	; 0x7f
    1910:	c27230ff 	rsbsgt	r3, r2, #255	; 0xff
    1914:	c1800b82 	orrgt	r0, r0, r2, lsl #23
    1918:	c12fff1e 	bxgt	lr
    191c:	e3800502 	orr	r0, r0, #8388608	; 0x800000
    1920:	e3a03000 	mov	r3, #0
    1924:	e2522001 	subs	r2, r2, #1
    1928:	eaffff8f 	b	176c <__aeabi_fmul+0xa0>
    192c:	e3320000 	teq	r2, #0
    1930:	e200c102 	and	r12, r0, #-2147483648	; 0x80000000
    1934:	01a00080 	lsleq	r0, r0, #1
    1938:	03100502 	tsteq	r0, #8388608	; 0x800000
    193c:	02422001 	subeq	r2, r2, #1
    1940:	0afffffb 	beq	1934 <__aeabi_fdiv+0xd0>
    1944:	e180000c 	orr	r0, r0, r12
    1948:	e3330000 	teq	r3, #0
    194c:	e201c102 	and	r12, r1, #-2147483648	; 0x80000000
    1950:	01a01081 	lsleq	r1, r1, #1
    1954:	03110502 	tsteq	r1, #8388608	; 0x800000
    1958:	02433001 	subeq	r3, r3, #1
    195c:	0afffffb 	beq	1950 <__aeabi_fdiv+0xec>
    1960:	e181100c 	orr	r1, r1, r12
    1964:	eaffffc4 	b	187c <__aeabi_fdiv+0x18>
    1968:	e00c3ba1 	and	r3, r12, r1, lsr #23
    196c:	e132000c 	teq	r2, r12
    1970:	1a000005 	bne	198c <__aeabi_fdiv+0x128>
    1974:	e1b02480 	lsls	r2, r0, #9
    1978:	1affffb6 	bne	1858 <__aeabi_fmul+0x18c>
    197c:	e133000c 	teq	r3, r12
    1980:	1affffaf 	bne	1844 <__aeabi_fmul+0x178>
    1984:	e1a00001 	mov	r0, r1
    1988:	eaffffb2 	b	1858 <__aeabi_fmul+0x18c>
    198c:	e133000c 	teq	r3, r12
    1990:	1a000003 	bne	19a4 <__aeabi_fdiv+0x140>
    1994:	e1b03481 	lsls	r3, r1, #9
    1998:	0affff97 	beq	17fc <__aeabi_fmul+0x130>
    199c:	e1a00001 	mov	r0, r1
    19a0:	eaffffac 	b	1858 <__aeabi_fmul+0x18c>
    19a4:	e3d0c102 	bics	r12, r0, #-2147483648	; 0x80000000
    19a8:	13d1c102 	bicsne	r12, r1, #-2147483648	; 0x80000000
    19ac:	1affffde 	bne	192c <__aeabi_fdiv+0xc8>
    19b0:	e3d02102 	bics	r2, r0, #-2147483648	; 0x80000000
    19b4:	1affffa2 	bne	1844 <__aeabi_fmul+0x178>
    19b8:	e3d13102 	bics	r3, r1, #-2147483648	; 0x80000000
    19bc:	1affff8e 	bne	17fc <__aeabi_fmul+0x130>
    19c0:	eaffffa4 	b	1858 <__aeabi_fmul+0x18c>

000019c4 <__gesf2>:
    19c4:	e3e0c000 	mvn	r12, #0
    19c8:	ea000002 	b	19d8 <__cmpsf2+0x4>

000019cc <__lesf2>:
    19cc:	e3a0c001 	mov	r12, #1
    19d0:	ea000000 	b	19d8 <__cmpsf2+0x4>

000019d4 <__cmpsf2>:
    19d4:	e3a0c001 	mov	r12, #1
    19d8:	e52dc004 	push	{r12}		; (str r12, [sp, #-4]!)
    19dc:	e1a02080 	lsl	r2, r0, #1
    19e0:	e1a03081 	lsl	r3, r1, #1
    19e4:	e1f0cc42 	mvns	r12, r2, asr #24
    19e8:	11f0cc43 	mvnsne	r12, r3, asr #24
    19ec:	0a000007 	beq	1a10 <__cmpsf2+0x3c>
    19f0:	e28dd004 	add	sp, sp, #4
    19f4:	e192c0a3 	orrs	r12, r2, r3, lsr #1
    19f8:	11300001 	teqne	r0, r1
    19fc:	50520003 	subspl	r0, r2, r3
    1a00:	81a00fc1 	asrhi	r0, r1, #31
    1a04:	31e00fc1 	mvncc	r0, r1, asr #31
    1a08:	13800001 	orrne	r0, r0, #1
    1a0c:	e12fff1e 	bx	lr
    1a10:	e1f0cc42 	mvns	r12, r2, asr #24
    1a14:	1a000001 	bne	1a20 <__cmpsf2+0x4c>
    1a18:	e1b0c480 	lsls	r12, r0, #9
    1a1c:	1a000003 	bne	1a30 <__cmpsf2+0x5c>
    1a20:	e1f0cc43 	mvns	r12, r3, asr #24
    1a24:	1afffff1 	bne	19f0 <__cmpsf2+0x1c>
    1a28:	e1b0c481 	lsls	r12, r1, #9
    1a2c:	0affffef 	beq	19f0 <__cmpsf2+0x1c>
    1a30:	e49d0004 	pop	{r0}		; (ldr r0, [sp], #4)
    1a34:	e12fff1e 	bx	lr

00001a38 <__aeabi_cfrcmple>:
    1a38:	e1a0c000 	mov	r12, r0
    1a3c:	e1a00001 	mov	r0, r1
    1a40:	e1a0100c 	mov	r1, r12
    1a44:	eaffffff 	b	1a48 <__aeabi_cfcmpeq>

00001a48 <__aeabi_cfcmpeq>:
    1a48:	e92d400f 	push	{r0, r1, r2, r3, lr}
    1a4c:	ebffffe0 	bl	19d4 <__cmpsf2>
    1a50:	e3500000 	cmp	r0, #0
    1a54:	43700000 	cmnmi	r0, #0
    1a58:	e8bd400f 	pop	{r0, r1, r2, r3, lr}
    1a5c:	e12fff1e 	bx	lr

00001a60 <__aeabi_fcmpeq>:
    1a60:	e52de008 	str	lr, [sp, #-8]!
    1a64:	ebfffff7 	bl	1a48 <__aeabi_cfcmpeq>
    1a68:	03a00001 	moveq	r0, #1
    1a6c:	13a00000 	movne	r0, #0
    1a70:	e49de008 	ldr	lr, [sp], #8
    1a74:	e12fff1e 	bx	lr

00001a78 <__aeabi_fcmplt>:
    1a78:	e52de008 	str	lr, [sp, #-8]!
    1a7c:	ebfffff1 	bl	1a48 <__aeabi_cfcmpeq>
    1a80:	33a00001 	movcc	r0, #1
    1a84:	23a00000 	movcs	r0, #0
    1a88:	e49de008 	ldr	lr, [sp], #8
    1a8c:	e12fff1e 	bx	lr

00001a90 <__aeabi_fcmple>:
    1a90:	e52de008 	str	lr, [sp, #-8]!
    1a94:	ebffffeb 	bl	1a48 <__aeabi_cfcmpeq>
    1a98:	93a00001 	movls	r0, #1
    1a9c:	83a00000 	movhi	r0, #0
    1aa0:	e49de008 	ldr	lr, [sp], #8
    1aa4:	e12fff1e 	bx	lr

00001aa8 <__aeabi_fcmpge>:
    1aa8:	e52de008 	str	lr, [sp, #-8]!
    1aac:	ebffffe1 	bl	1a38 <__aeabi_cfrcmple>
    1ab0:	93a00001 	movls	r0, #1
    1ab4:	83a00000 	movhi	r0, #0
    1ab8:	e49de008 	ldr	lr, [sp], #8
    1abc:	e12fff1e 	bx	lr

00001ac0 <__aeabi_fcmpgt>:
    1ac0:	e52de008 	str	lr, [sp, #-8]!
    1ac4:	ebffffdb 	bl	1a38 <__aeabi_cfrcmple>
    1ac8:	33a00001 	movcc	r0, #1
    1acc:	23a00000 	movcs	r0, #0
    1ad0:	e49de008 	ldr	lr, [sp], #8
    1ad4:	e12fff1e 	bx	lr

00001ad8 <atexit>:
    1ad8:	e1a01000 	mov	r1, r0
    1adc:	e3a00000 	mov	r0, #0
    1ae0:	e92d4008 	push	{r3, lr}
    1ae4:	e1a02000 	mov	r2, r0
    1ae8:	e1a03000 	mov	r3, r0
    1aec:	eb0008e8 	bl	3e94 <__register_exitproc>
    1af0:	e8bd4008 	pop	{r3, lr}
    1af4:	e12fff1e 	bx	lr

00001af8 <exit>:
    1af8:	e92d4008 	push	{r3, lr}
    1afc:	e3a01000 	mov	r1, #0
    1b00:	e1a04000 	mov	r4, r0
    1b04:	eb00091f 	bl	3f88 <__call_exitprocs>
    1b08:	e59f3018 	ldr	r3, [pc, #24]	; 1b28 <exit+0x30>
    1b0c:	e5930000 	ldr	r0, [r3]
    1b10:	e590303c 	ldr	r3, [r0, #60]	; 0x3c
    1b14:	e3530000 	cmp	r3, #0
    1b18:	11a0e00f 	movne	lr, pc
    1b1c:	112fff13 	bxne	r3
    1b20:	e1a00004 	mov	r0, r4
    1b24:	eb00274a 	bl	b854 <_exit>
    1b28:	0000becc 	.word	0x0000becc

00001b2c <_printf_r>:
    1b2c:	e92d000e 	push	{r1, r2, r3}
    1b30:	e52de004 	push	{lr}		; (str lr, [sp, #-4]!)
    1b34:	e24dd008 	sub	sp, sp, #8
    1b38:	e28dc010 	add	r12, sp, #16
    1b3c:	e5901008 	ldr	r1, [r0, #8]
    1b40:	e59d200c 	ldr	r2, [sp, #12]
    1b44:	e1a0300c 	mov	r3, r12
    1b48:	e58dc004 	str	r12, [sp, #4]
    1b4c:	eb000022 	bl	1bdc <_vfprintf_r>
    1b50:	e28dd008 	add	sp, sp, #8
    1b54:	e49de004 	pop	{lr}		; (ldr lr, [sp], #4)
    1b58:	e28dd00c 	add	sp, sp, #12
    1b5c:	e12fff1e 	bx	lr

00001b60 <printf>:
    1b60:	e92d000f 	push	{r0, r1, r2, r3}
    1b64:	e52de004 	push	{lr}		; (str lr, [sp, #-4]!)
    1b68:	e59f302c 	ldr	r3, [pc, #44]	; 1b9c <printf+0x3c>
    1b6c:	e24dd00c 	sub	sp, sp, #12
    1b70:	e5930000 	ldr	r0, [r3]
    1b74:	e28dc014 	add	r12, sp, #20
    1b78:	e5901008 	ldr	r1, [r0, #8]
    1b7c:	e59d2010 	ldr	r2, [sp, #16]
    1b80:	e1a0300c 	mov	r3, r12
    1b84:	e58dc004 	str	r12, [sp, #4]
    1b88:	eb000013 	bl	1bdc <_vfprintf_r>
    1b8c:	e28dd00c 	add	sp, sp, #12
    1b90:	e49de004 	pop	{lr}		; (ldr lr, [sp], #4)
    1b94:	e28dd010 	add	sp, sp, #16
    1b98:	e12fff1e 	bx	lr
    1b9c:	0000c100 	.word	0x0000c100

00001ba0 <_putchar_r>:
    1ba0:	e92d4008 	push	{r3, lr}
    1ba4:	e5902008 	ldr	r2, [r0, #8]
    1ba8:	eb0018b7 	bl	7e8c <_putc_r>
    1bac:	e8bd4008 	pop	{r3, lr}
    1bb0:	e12fff1e 	bx	lr

00001bb4 <putchar>:
    1bb4:	e92d4008 	push	{r3, lr}
    1bb8:	e59f3018 	ldr	r3, [pc, #24]	; 1bd8 <putchar+0x24>
    1bbc:	e5933000 	ldr	r3, [r3]
    1bc0:	e1a01000 	mov	r1, r0
    1bc4:	e5932008 	ldr	r2, [r3, #8]
    1bc8:	e1a00003 	mov	r0, r3
    1bcc:	eb0018ae 	bl	7e8c <_putc_r>
    1bd0:	e8bd4008 	pop	{r3, lr}
    1bd4:	e12fff1e 	bx	lr
    1bd8:	0000c100 	.word	0x0000c100

00001bdc <_vfprintf_r>:
    1bdc:	e92d4ff0 	push	{r4, r5, r6, r7, r8, r9, r10, r11, lr}
    1be0:	e24ddd15 	sub	sp, sp, #1344	; 0x540
    1be4:	e24dd004 	sub	sp, sp, #4
    1be8:	e1a09001 	mov	r9, r1
    1bec:	e1a04002 	mov	r4, r2
    1bf0:	e58d303c 	str	r3, [sp, #60]	; 0x3c
    1bf4:	e58d002c 	str	r0, [sp, #44]	; 0x2c
    1bf8:	eb001217 	bl	645c <_localeconv_r>
    1bfc:	e5900000 	ldr	r0, [r0]
    1c00:	e58d0058 	str	r0, [sp, #88]	; 0x58
    1c04:	eb0019ea 	bl	83b4 <strlen>
    1c08:	e59d602c 	ldr	r6, [sp, #44]	; 0x2c
    1c0c:	e3a0b000 	mov	r11, #0
    1c10:	e3a0c000 	mov	r12, #0
    1c14:	e3560000 	cmp	r6, #0
    1c18:	e58d0064 	str	r0, [sp, #100]	; 0x64
    1c1c:	e58db068 	str	r11, [sp, #104]	; 0x68
    1c20:	e58dc06c 	str	r12, [sp, #108]	; 0x6c
    1c24:	0a000002 	beq	1c34 <_vfprintf_r+0x58>
    1c28:	e5963038 	ldr	r3, [r6, #56]	; 0x38
    1c2c:	e3530000 	cmp	r3, #0
    1c30:	0a000101 	beq	203c <_vfprintf_r+0x460>
    1c34:	e1d980bc 	ldrh	r8, [r9, #12]
    1c38:	e3180a02 	tst	r8, #8192	; 0x2000
    1c3c:	05993064 	ldreq	r3, [r9, #100]	; 0x64
    1c40:	03888a02 	orreq	r8, r8, #8192	; 0x2000
    1c44:	03c33a02 	biceq	r3, r3, #8192	; 0x2000
    1c48:	01c980bc 	strheq	r8, [r9, #12]
    1c4c:	05893064 	streq	r3, [r9, #100]	; 0x64
    1c50:	e3180008 	tst	r8, #8
    1c54:	0a0000aa 	beq	1f04 <_vfprintf_r+0x328>
    1c58:	e5993010 	ldr	r3, [r9, #16]
    1c5c:	e3530000 	cmp	r3, #0
    1c60:	0a0000a7 	beq	1f04 <_vfprintf_r+0x328>
    1c64:	e208301a 	and	r3, r8, #26
    1c68:	e353000a 	cmp	r3, #10
    1c6c:	0a0000c4 	beq	1f84 <_vfprintf_r+0x3a8>
    1c70:	e28d60d8 	add	r6, sp, #216	; 0xd8
    1c74:	e28d70d7 	add	r7, sp, #215	; 0xd7
    1c78:	e3a03000 	mov	r3, #0
    1c7c:	e28dbd05 	add	r11, sp, #320	; 0x140
    1c80:	e58d4028 	str	r4, [sp, #40]	; 0x28
    1c84:	e0674006 	rsb	r4, r7, r6
    1c88:	e58d3044 	str	r3, [sp, #68]	; 0x44
    1c8c:	e58d6054 	str	r6, [sp, #84]	; 0x54
    1c90:	e58d705c 	str	r7, [sp, #92]	; 0x5c
    1c94:	e58db0a4 	str	r11, [sp, #164]	; 0xa4
    1c98:	e58d30ac 	str	r3, [sp, #172]	; 0xac
    1c9c:	e58d30a8 	str	r3, [sp, #168]	; 0xa8
    1ca0:	e58d3074 	str	r3, [sp, #116]	; 0x74
    1ca4:	e58d3070 	str	r3, [sp, #112]	; 0x70
    1ca8:	e58d3034 	str	r3, [sp, #52]	; 0x34
    1cac:	e58d407c 	str	r4, [sp, #124]	; 0x7c
    1cb0:	e58d901c 	str	r9, [sp, #28]
    1cb4:	e1a0c00b 	mov	r12, r11
    1cb8:	e1a0500b 	mov	r5, r11
    1cbc:	e59d6028 	ldr	r6, [sp, #40]	; 0x28
    1cc0:	e5d63000 	ldrb	r3, [r6]
    1cc4:	e3530025 	cmp	r3, #37	; 0x25
    1cc8:	13530000 	cmpne	r3, #0
    1ccc:	0a0000dd 	beq	2048 <_vfprintf_r+0x46c>
    1cd0:	e2863001 	add	r3, r6, #1
    1cd4:	e1a07003 	mov	r7, r3
    1cd8:	e5d33000 	ldrb	r3, [r3]
    1cdc:	e3530025 	cmp	r3, #37	; 0x25
    1ce0:	13530000 	cmpne	r3, #0
    1ce4:	e2873001 	add	r3, r7, #1
    1ce8:	1afffff9 	bne	1cd4 <_vfprintf_r+0xf8>
    1cec:	e59dc028 	ldr	r12, [sp, #40]	; 0x28
    1cf0:	e057800c 	subs	r8, r7, r12
    1cf4:	0a00000d 	beq	1d30 <_vfprintf_r+0x154>
    1cf8:	e28d40a8 	add	r4, sp, #168	; 0xa8
    1cfc:	e8940050 	ldm	r4, {r4, r6}
    1d00:	e2844001 	add	r4, r4, #1
    1d04:	e0866008 	add	r6, r6, r8
    1d08:	e3540007 	cmp	r4, #7
    1d0c:	e585c000 	str	r12, [r5]
    1d10:	e5858004 	str	r8, [r5, #4]
    1d14:	e58d60ac 	str	r6, [sp, #172]	; 0xac
    1d18:	e58d40a8 	str	r4, [sp, #168]	; 0xa8
    1d1c:	d2855008 	addle	r5, r5, #8
    1d20:	ca000084 	bgt	1f38 <_vfprintf_r+0x35c>
    1d24:	e59d4034 	ldr	r4, [sp, #52]	; 0x34
    1d28:	e0844008 	add	r4, r4, r8
    1d2c:	e58d4034 	str	r4, [sp, #52]	; 0x34
    1d30:	e5d73000 	ldrb	r3, [r7]
    1d34:	e3530000 	cmp	r3, #0
    1d38:	0a000699 	beq	37a4 <_vfprintf_r+0x1bc8>
    1d3c:	e2876001 	add	r6, r7, #1
    1d40:	e3a03000 	mov	r3, #0
    1d44:	e58d6028 	str	r6, [sp, #40]	; 0x28
    1d48:	e5d78001 	ldrb	r8, [r7, #1]
    1d4c:	e58d3030 	str	r3, [sp, #48]	; 0x30
    1d50:	e5cd3083 	strb	r3, [sp, #131]	; 0x83
    1d54:	e58d3018 	str	r3, [sp, #24]
    1d58:	e3e04000 	mvn	r4, #0
    1d5c:	e3a01020 	mov	r1, #32
    1d60:	e3a0202b 	mov	r2, #43	; 0x2b
    1d64:	e1a03006 	mov	r3, r6
    1d68:	e2833001 	add	r3, r3, #1
    1d6c:	e2480020 	sub	r0, r8, #32
    1d70:	e3500058 	cmp	r0, #88	; 0x58
    1d74:	979ff100 	ldrls	pc, [pc, r0, lsl #2]
    1d78:	ea000224 	b	2610 <_vfprintf_r+0xa34>
    1d7c:	0000264c 	.word	0x0000264c
    1d80:	00002610 	.word	0x00002610
    1d84:	00002610 	.word	0x00002610
    1d88:	00002664 	.word	0x00002664
    1d8c:	00002610 	.word	0x00002610
    1d90:	00002610 	.word	0x00002610
    1d94:	00002610 	.word	0x00002610
    1d98:	00002610 	.word	0x00002610
    1d9c:	00002610 	.word	0x00002610
    1da0:	00002610 	.word	0x00002610
    1da4:	00002678 	.word	0x00002678
    1da8:	00002050 	.word	0x00002050
    1dac:	00002610 	.word	0x00002610
    1db0:	00001ef0 	.word	0x00001ef0
    1db4:	0000205c 	.word	0x0000205c
    1db8:	00002610 	.word	0x00002610
    1dbc:	000020a8 	.word	0x000020a8
    1dc0:	000020bc 	.word	0x000020bc
    1dc4:	000020bc 	.word	0x000020bc
    1dc8:	000020bc 	.word	0x000020bc
    1dcc:	000020bc 	.word	0x000020bc
    1dd0:	000020bc 	.word	0x000020bc
    1dd4:	000020bc 	.word	0x000020bc
    1dd8:	000020bc 	.word	0x000020bc
    1ddc:	000020bc 	.word	0x000020bc
    1de0:	000020bc 	.word	0x000020bc
    1de4:	00002610 	.word	0x00002610
    1de8:	00002610 	.word	0x00002610
    1dec:	00002610 	.word	0x00002610
    1df0:	00002610 	.word	0x00002610
    1df4:	00002610 	.word	0x00002610
    1df8:	00002610 	.word	0x00002610
    1dfc:	00002610 	.word	0x00002610
    1e00:	00002610 	.word	0x00002610
    1e04:	00002610 	.word	0x00002610
    1e08:	00002610 	.word	0x00002610
    1e0c:	000020ec 	.word	0x000020ec
    1e10:	00002328 	.word	0x00002328
    1e14:	00002610 	.word	0x00002610
    1e18:	00002328 	.word	0x00002328
    1e1c:	00002610 	.word	0x00002610
    1e20:	00002610 	.word	0x00002610
    1e24:	00002610 	.word	0x00002610
    1e28:	00002610 	.word	0x00002610
    1e2c:	000023d8 	.word	0x000023d8
    1e30:	00002610 	.word	0x00002610
    1e34:	00002610 	.word	0x00002610
    1e38:	000023ec 	.word	0x000023ec
    1e3c:	00002610 	.word	0x00002610
    1e40:	00002610 	.word	0x00002610
    1e44:	00002610 	.word	0x00002610
    1e48:	00002610 	.word	0x00002610
    1e4c:	00002610 	.word	0x00002610
    1e50:	0000243c 	.word	0x0000243c
    1e54:	00002610 	.word	0x00002610
    1e58:	00002610 	.word	0x00002610
    1e5c:	00002484 	.word	0x00002484
    1e60:	00002610 	.word	0x00002610
    1e64:	00002610 	.word	0x00002610
    1e68:	00002610 	.word	0x00002610
    1e6c:	00002610 	.word	0x00002610
    1e70:	00002610 	.word	0x00002610
    1e74:	00002610 	.word	0x00002610
    1e78:	00002610 	.word	0x00002610
    1e7c:	00002610 	.word	0x00002610
    1e80:	00002610 	.word	0x00002610
    1e84:	00002610 	.word	0x00002610
    1e88:	00002780 	.word	0x00002780
    1e8c:	00002728 	.word	0x00002728
    1e90:	00002328 	.word	0x00002328
    1e94:	00002328 	.word	0x00002328
    1e98:	00002328 	.word	0x00002328
    1e9c:	0000276c 	.word	0x0000276c
    1ea0:	00002728 	.word	0x00002728
    1ea4:	00002610 	.word	0x00002610
    1ea8:	00002610 	.word	0x00002610
    1eac:	00002568 	.word	0x00002568
    1eb0:	00002610 	.word	0x00002610
    1eb4:	00002598 	.word	0x00002598
    1eb8:	000025cc 	.word	0x000025cc
    1ebc:	000027bc 	.word	0x000027bc
    1ec0:	000024d4 	.word	0x000024d4
    1ec4:	00002610 	.word	0x00002610
    1ec8:	000024e8 	.word	0x000024e8
    1ecc:	00002610 	.word	0x00002610
    1ed0:	000026a0 	.word	0x000026a0
    1ed4:	00002610 	.word	0x00002610
    1ed8:	00002610 	.word	0x00002610
    1edc:	000026e8 	.word	0x000026e8
    1ee0:	e59d6030 	ldr	r6, [sp, #48]	; 0x30
    1ee4:	e2666000 	rsb	r6, r6, #0
    1ee8:	e58d6030 	str	r6, [sp, #48]	; 0x30
    1eec:	e58d003c 	str	r0, [sp, #60]	; 0x3c
    1ef0:	e59d7018 	ldr	r7, [sp, #24]
    1ef4:	e3877004 	orr	r7, r7, #4
    1ef8:	e58d7018 	str	r7, [sp, #24]
    1efc:	e5d38000 	ldrb	r8, [r3]
    1f00:	eaffff98 	b	1d68 <_vfprintf_r+0x18c>
    1f04:	e59d002c 	ldr	r0, [sp, #44]	; 0x2c
    1f08:	e1a01009 	mov	r1, r9
    1f0c:	eb000792 	bl	3d5c <__swsetup_r>
    1f10:	e3500000 	cmp	r0, #0
    1f14:	01d980bc 	ldrheq	r8, [r9, #12]
    1f18:	0affff51 	beq	1c64 <_vfprintf_r+0x88>
    1f1c:	e3e0c000 	mvn	r12, #0
    1f20:	e58dc034 	str	r12, [sp, #52]	; 0x34
    1f24:	e59d0034 	ldr	r0, [sp, #52]	; 0x34
    1f28:	e28ddf51 	add	sp, sp, #324	; 0x144
    1f2c:	e28ddb01 	add	sp, sp, #1024	; 0x400
    1f30:	e8bd4ff0 	pop	{r4, r5, r6, r7, r8, r9, r10, r11, lr}
    1f34:	e12fff1e 	bx	lr
    1f38:	e59d002c 	ldr	r0, [sp, #44]	; 0x2c
    1f3c:	e59d101c 	ldr	r1, [sp, #28]
    1f40:	e28d20a4 	add	r2, sp, #164	; 0xa4
    1f44:	eb001932 	bl	8414 <__sprint_r>
    1f48:	e3500000 	cmp	r0, #0
    1f4c:	1a000007 	bne	1f70 <_vfprintf_r+0x394>
    1f50:	e28d5d05 	add	r5, sp, #320	; 0x140
    1f54:	eaffff72 	b	1d24 <_vfprintf_r+0x148>
    1f58:	e59d002c 	ldr	r0, [sp, #44]	; 0x2c
    1f5c:	e59d101c 	ldr	r1, [sp, #28]
    1f60:	e28d20a4 	add	r2, sp, #164	; 0xa4
    1f64:	eb00192a 	bl	8414 <__sprint_r>
    1f68:	e3500000 	cmp	r0, #0
    1f6c:	0a0002d2 	beq	2abc <_vfprintf_r+0xee0>
    1f70:	e59d901c 	ldr	r9, [sp, #28]
    1f74:	e1d930bc 	ldrh	r3, [r9, #12]
    1f78:	e3130040 	tst	r3, #64	; 0x40
    1f7c:	1affffe6 	bne	1f1c <_vfprintf_r+0x340>
    1f80:	eaffffe7 	b	1f24 <_vfprintf_r+0x348>
    1f84:	e1d9c0be 	ldrh	r12, [r9, #14]
    1f88:	e31c0902 	tst	r12, #32768	; 0x8000
    1f8c:	1affff37 	bne	1c70 <_vfprintf_r+0x94>
    1f90:	e1a02004 	mov	r2, r4
    1f94:	e59f4fb0 	ldr	r4, [pc, #4016]	; 2f4c <_vfprintf_r+0x1370>
    1f98:	e28dbd15 	add	r11, sp, #1344	; 0x540
    1f9c:	e3c88002 	bic	r8, r8, #2
    1fa0:	e18b80b4 	strh	r8, [r11, r4]
    1fa4:	e5997064 	ldr	r7, [r9, #100]	; 0x64
    1fa8:	e599601c 	ldr	r6, [r9, #28]
    1fac:	e599a024 	ldr	r10, [r9, #36]	; 0x24
    1fb0:	e2844002 	add	r4, r4, #2
    1fb4:	e3a0eb01 	mov	lr, #1024	; 0x400
    1fb8:	e28d5d05 	add	r5, sp, #320	; 0x140
    1fbc:	e18bc0b4 	strh	r12, [r11, r4]
    1fc0:	e59d002c 	ldr	r0, [sp, #44]	; 0x2c
    1fc4:	e3a0c000 	mov	r12, #0
    1fc8:	e28d10d8 	add	r1, sp, #216	; 0xd8
    1fcc:	e59d303c 	ldr	r3, [sp, #60]	; 0x3c
    1fd0:	e58d713c 	str	r7, [sp, #316]	; 0x13c
    1fd4:	e58d60f4 	str	r6, [sp, #244]	; 0xf4
    1fd8:	e58da0fc 	str	r10, [sp, #252]	; 0xfc
    1fdc:	e58d50d8 	str	r5, [sp, #216]	; 0xd8
    1fe0:	e58d50e8 	str	r5, [sp, #232]	; 0xe8
    1fe4:	e58de0e0 	str	lr, [sp, #224]	; 0xe0
    1fe8:	e58de0ec 	str	lr, [sp, #236]	; 0xec
    1fec:	e58dc0f0 	str	r12, [sp, #240]	; 0xf0
    1ff0:	ebfffef9 	bl	1bdc <_vfprintf_r>
    1ff4:	e3500000 	cmp	r0, #0
    1ff8:	e58d0034 	str	r0, [sp, #52]	; 0x34
    1ffc:	ba000006 	blt	201c <_vfprintf_r+0x440>
    2000:	e59d002c 	ldr	r0, [sp, #44]	; 0x2c
    2004:	e28d10d8 	add	r1, sp, #216	; 0xd8
    2008:	eb000e70 	bl	59d0 <_fflush_r>
    200c:	e59dc034 	ldr	r12, [sp, #52]	; 0x34
    2010:	e3500000 	cmp	r0, #0
    2014:	13e0c000 	mvnne	r12, #0
    2018:	e58dc034 	str	r12, [sp, #52]	; 0x34
    201c:	e59f3f28 	ldr	r3, [pc, #3880]	; 2f4c <_vfprintf_r+0x1370>
    2020:	e28d0d15 	add	r0, sp, #1344	; 0x540
    2024:	e19030b3 	ldrh	r3, [r0, r3]
    2028:	e3130040 	tst	r3, #64	; 0x40
    202c:	11d930bc 	ldrhne	r3, [r9, #12]
    2030:	13833040 	orrne	r3, r3, #64	; 0x40
    2034:	11c930bc 	strhne	r3, [r9, #12]
    2038:	eaffffb9 	b	1f24 <_vfprintf_r+0x348>
    203c:	e1a00006 	mov	r0, r6
    2040:	eb000f3c 	bl	5d38 <__sinit>
    2044:	eafffefa 	b	1c34 <_vfprintf_r+0x58>
    2048:	e59d7028 	ldr	r7, [sp, #40]	; 0x28
    204c:	eaffff37 	b	1d30 <_vfprintf_r+0x154>
    2050:	e5cd2083 	strb	r2, [sp, #131]	; 0x83
    2054:	e5d38000 	ldrb	r8, [r3]
    2058:	eaffff42 	b	1d68 <_vfprintf_r+0x18c>
    205c:	e1a0c003 	mov	r12, r3
    2060:	e4dc8001 	ldrb	r8, [r12], #1
    2064:	e358002a 	cmp	r8, #42	; 0x2a
    2068:	0a000717 	beq	3ccc <_vfprintf_r+0x20f0>
    206c:	e2480030 	sub	r0, r8, #48	; 0x30
    2070:	e3500009 	cmp	r0, #9
    2074:	81a0300c 	movhi	r3, r12
    2078:	83a04000 	movhi	r4, #0
    207c:	8affff3a 	bhi	1d6c <_vfprintf_r+0x190>
    2080:	e3a04000 	mov	r4, #0
    2084:	e4dc8001 	ldrb	r8, [r12], #1
    2088:	e0844104 	add	r4, r4, r4, lsl #2
    208c:	e0804084 	add	r4, r0, r4, lsl #1
    2090:	e2480030 	sub	r0, r8, #48	; 0x30
    2094:	e3500009 	cmp	r0, #9
    2098:	e1a0300c 	mov	r3, r12
    209c:	9afffff8 	bls	2084 <_vfprintf_r+0x4a8>
    20a0:	e1844fc4 	orr	r4, r4, r4, asr #31
    20a4:	eaffff30 	b	1d6c <_vfprintf_r+0x190>
    20a8:	e59dc018 	ldr	r12, [sp, #24]
    20ac:	e38cc080 	orr	r12, r12, #128	; 0x80
    20b0:	e58dc018 	str	r12, [sp, #24]
    20b4:	e5d38000 	ldrb	r8, [r3]
    20b8:	eaffff2a 	b	1d68 <_vfprintf_r+0x18c>
    20bc:	e1a0c003 	mov	r12, r3
    20c0:	e3a00000 	mov	r0, #0
    20c4:	e2483030 	sub	r3, r8, #48	; 0x30
    20c8:	e4dc8001 	ldrb	r8, [r12], #1
    20cc:	e2486030 	sub	r6, r8, #48	; 0x30
    20d0:	e0800100 	add	r0, r0, r0, lsl #2
    20d4:	e3560009 	cmp	r6, #9
    20d8:	e0830080 	add	r0, r3, r0, lsl #1
    20dc:	e1a0300c 	mov	r3, r12
    20e0:	9afffff7 	bls	20c4 <_vfprintf_r+0x4e8>
    20e4:	e58d0030 	str	r0, [sp, #48]	; 0x30
    20e8:	eaffff1f 	b	1d6c <_vfprintf_r+0x190>
    20ec:	e59d6018 	ldr	r6, [sp, #24]
    20f0:	e3866010 	orr	r6, r6, #16
    20f4:	e58d6018 	str	r6, [sp, #24]
    20f8:	e59d7018 	ldr	r7, [sp, #24]
    20fc:	e3170020 	tst	r7, #32
    2100:	e58d3028 	str	r3, [sp, #40]	; 0x28
    2104:	0a00018b 	beq	2738 <_vfprintf_r+0xb5c>
    2108:	e59db03c 	ldr	r11, [sp, #60]	; 0x3c
    210c:	e28b1007 	add	r1, r11, #7
    2110:	e3c11007 	bic	r1, r1, #7
    2114:	e891000c 	ldm	r1, {r2, r3}
    2118:	e2811008 	add	r1, r1, #8
    211c:	e58d103c 	str	r1, [sp, #60]	; 0x3c
    2120:	e1a06002 	mov	r6, r2
    2124:	e1a07003 	mov	r7, r3
    2128:	e3520000 	cmp	r2, #0
    212c:	e2d30000 	sbcs	r0, r3, #0
    2130:	ba0004ae 	blt	33f0 <_vfprintf_r+0x1814>
    2134:	e1961007 	orrs	r1, r6, r7
    2138:	03a02000 	moveq	r2, #0
    213c:	13a02001 	movne	r2, #1
    2140:	e3a03001 	mov	r3, #1
    2144:	e3540000 	cmp	r4, #0
    2148:	a59dc018 	ldrge	r12, [sp, #24]
    214c:	a3ccc080 	bicge	r12, r12, #128	; 0x80
    2150:	a58dc018 	strge	r12, [sp, #24]
    2154:	e3540000 	cmp	r4, #0
    2158:	13822001 	orrne	r2, r2, #1
    215c:	e3520000 	cmp	r2, #0
    2160:	0a0002a4 	beq	2bf8 <_vfprintf_r+0x101c>
    2164:	e3530001 	cmp	r3, #1
    2168:	0a000397 	beq	2fcc <_vfprintf_r+0x13f0>
    216c:	e3530002 	cmp	r3, #2
    2170:	e59dc05c 	ldr	r12, [sp, #92]	; 0x5c
    2174:	0a000380 	beq	2f7c <_vfprintf_r+0x13a0>
    2178:	e3a00007 	mov	r0, #7
    217c:	e1a0a1a6 	lsr	r10, r6, #3
    2180:	e18aae87 	orr	r10, r10, r7, lsl #29
    2184:	e0062000 	and	r2, r6, r0
    2188:	e1a031a7 	lsr	r3, r7, #3
    218c:	e1a07003 	mov	r7, r3
    2190:	e1a0600a 	mov	r6, r10
    2194:	e2822030 	add	r2, r2, #48	; 0x30
    2198:	e20220ff 	and	r2, r2, #255	; 0xff
    219c:	e196b007 	orrs	r11, r6, r7
    21a0:	e1a0300c 	mov	r3, r12
    21a4:	e5cc2000 	strb	r2, [r12]
    21a8:	e24cc001 	sub	r12, r12, #1
    21ac:	1afffff2 	bne	217c <_vfprintf_r+0x5a0>
    21b0:	e59d6018 	ldr	r6, [sp, #24]
    21b4:	e3160001 	tst	r6, #1
    21b8:	e58d304c 	str	r3, [sp, #76]	; 0x4c
    21bc:	1a00047f 	bne	33c0 <_vfprintf_r+0x17e4>
    21c0:	e59d7054 	ldr	r7, [sp, #84]	; 0x54
    21c4:	e0637007 	rsb	r7, r3, r7
    21c8:	e58d7038 	str	r7, [sp, #56]	; 0x38
    21cc:	e59d7038 	ldr	r7, [sp, #56]	; 0x38
    21d0:	e3a0b000 	mov	r11, #0
    21d4:	e1570004 	cmp	r7, r4
    21d8:	b1a07004 	movlt	r7, r4
    21dc:	e58d7020 	str	r7, [sp, #32]
    21e0:	e5dd3083 	ldrb	r3, [sp, #131]	; 0x83
    21e4:	e58d4040 	str	r4, [sp, #64]	; 0x40
    21e8:	e58db060 	str	r11, [sp, #96]	; 0x60
    21ec:	e3530000 	cmp	r3, #0
    21f0:	0a000002 	beq	2200 <_vfprintf_r+0x624>
    21f4:	e59d7020 	ldr	r7, [sp, #32]
    21f8:	e2877001 	add	r7, r7, #1
    21fc:	e58d7020 	str	r7, [sp, #32]
    2200:	e59db018 	ldr	r11, [sp, #24]
    2204:	e21bb002 	ands	r11, r11, #2
    2208:	159dc020 	ldrne	r12, [sp, #32]
    220c:	e59d3018 	ldr	r3, [sp, #24]
    2210:	128cc002 	addne	r12, r12, #2
    2214:	158dc020 	strne	r12, [sp, #32]
    2218:	e2133084 	ands	r3, r3, #132	; 0x84
    221c:	e58db048 	str	r11, [sp, #72]	; 0x48
    2220:	e58d3050 	str	r3, [sp, #80]	; 0x50
    2224:	1a000178 	bne	280c <_vfprintf_r+0xc30>
    2228:	e59d4030 	ldr	r4, [sp, #48]	; 0x30
    222c:	e59d6020 	ldr	r6, [sp, #32]
    2230:	e0667004 	rsb	r7, r6, r4
    2234:	e3570000 	cmp	r7, #0
    2238:	da000173 	ble	280c <_vfprintf_r+0xc30>
    223c:	e28d40a8 	add	r4, sp, #168	; 0xa8
    2240:	e3570010 	cmp	r7, #16
    2244:	e8940050 	ldm	r4, {r4, r6}
    2248:	e59f9d00 	ldr	r9, [pc, #3328]	; 2f50 <_vfprintf_r+0x1374>
    224c:	da000023 	ble	22e0 <_vfprintf_r+0x704>
    2250:	e28da0a4 	add	r10, sp, #164	; 0xa4
    2254:	e1a03009 	mov	r3, r9
    2258:	e58d8078 	str	r8, [sp, #120]	; 0x78
    225c:	e1a09007 	mov	r9, r7
    2260:	e1a0800a 	mov	r8, r10
    2264:	e3a0b010 	mov	r11, #16
    2268:	e59da02c 	ldr	r10, [sp, #44]	; 0x2c
    226c:	e1a07003 	mov	r7, r3
    2270:	ea000002 	b	2280 <_vfprintf_r+0x6a4>
    2274:	e2499010 	sub	r9, r9, #16
    2278:	e3590010 	cmp	r9, #16
    227c:	da000013 	ble	22d0 <_vfprintf_r+0x6f4>
    2280:	e2844001 	add	r4, r4, #1
    2284:	e3540007 	cmp	r4, #7
    2288:	e2866010 	add	r6, r6, #16
    228c:	e8850880 	stm	r5, {r7, r11}
    2290:	e58d60ac 	str	r6, [sp, #172]	; 0xac
    2294:	e58d40a8 	str	r4, [sp, #168]	; 0xa8
    2298:	d2855008 	addle	r5, r5, #8
    229c:	dafffff4 	ble	2274 <_vfprintf_r+0x698>
    22a0:	e1a0000a 	mov	r0, r10
    22a4:	e59d101c 	ldr	r1, [sp, #28]
    22a8:	e1a02008 	mov	r2, r8
    22ac:	eb001858 	bl	8414 <__sprint_r>
    22b0:	e3500000 	cmp	r0, #0
    22b4:	1affff2d 	bne	1f70 <_vfprintf_r+0x394>
    22b8:	e2499010 	sub	r9, r9, #16
    22bc:	e28d40a8 	add	r4, sp, #168	; 0xa8
    22c0:	e3590010 	cmp	r9, #16
    22c4:	e8940050 	ldm	r4, {r4, r6}
    22c8:	e28d5d05 	add	r5, sp, #320	; 0x140
    22cc:	caffffeb 	bgt	2280 <_vfprintf_r+0x6a4>
    22d0:	e1a03007 	mov	r3, r7
    22d4:	e59d8078 	ldr	r8, [sp, #120]	; 0x78
    22d8:	e1a07009 	mov	r7, r9
    22dc:	e1a09003 	mov	r9, r3
    22e0:	e2844001 	add	r4, r4, #1
    22e4:	e0866007 	add	r6, r6, r7
    22e8:	e3540007 	cmp	r4, #7
    22ec:	e5859000 	str	r9, [r5]
    22f0:	e5857004 	str	r7, [r5, #4]
    22f4:	e58d60ac 	str	r6, [sp, #172]	; 0xac
    22f8:	e58d40a8 	str	r4, [sp, #168]	; 0xa8
    22fc:	d2855008 	addle	r5, r5, #8
    2300:	da000142 	ble	2810 <_vfprintf_r+0xc34>
    2304:	e59d002c 	ldr	r0, [sp, #44]	; 0x2c
    2308:	e59d101c 	ldr	r1, [sp, #28]
    230c:	e28d20a4 	add	r2, sp, #164	; 0xa4
    2310:	eb00183f 	bl	8414 <__sprint_r>
    2314:	e3500000 	cmp	r0, #0
    2318:	1affff14 	bne	1f70 <_vfprintf_r+0x394>
    231c:	e59d60ac 	ldr	r6, [sp, #172]	; 0xac
    2320:	e28d5d05 	add	r5, sp, #320	; 0x140
    2324:	ea000139 	b	2810 <_vfprintf_r+0xc34>
    2328:	e59d6018 	ldr	r6, [sp, #24]
    232c:	e3160008 	tst	r6, #8
    2330:	e58d3028 	str	r3, [sp, #40]	; 0x28
    2334:	0a000493 	beq	3588 <_vfprintf_r+0x19ac>
    2338:	e59d703c 	ldr	r7, [sp, #60]	; 0x3c
    233c:	e2871007 	add	r1, r7, #7
    2340:	e3c11007 	bic	r1, r1, #7
    2344:	e591a000 	ldr	r10, [r1]
    2348:	e5917004 	ldr	r7, [r1, #4]
    234c:	e1a0b00a 	mov	r11, r10
    2350:	e1a0c007 	mov	r12, r7
    2354:	e2811008 	add	r1, r1, #8
    2358:	e58db068 	str	r11, [sp, #104]	; 0x68
    235c:	e58dc06c 	str	r12, [sp, #108]	; 0x6c
    2360:	e58d103c 	str	r1, [sp, #60]	; 0x3c
    2364:	e1a01007 	mov	r1, r7
    2368:	e1a0000a 	mov	r0, r10
    236c:	eb001722 	bl	7ffc <__fpclassifyd>
    2370:	e3500001 	cmp	r0, #1
    2374:	e1a01007 	mov	r1, r7
    2378:	e1a0000a 	mov	r0, r10
    237c:	1a000426 	bne	341c <_vfprintf_r+0x1840>
    2380:	e3a03000 	mov	r3, #0
    2384:	e3a02000 	mov	r2, #0
    2388:	ebfffbe4 	bl	1320 <__aeabi_dcmplt>
    238c:	e3500000 	cmp	r0, #0
    2390:	13a0302d 	movne	r3, #45	; 0x2d
    2394:	e59d7018 	ldr	r7, [sp, #24]
    2398:	e59f2bb4 	ldr	r2, [pc, #2996]	; 2f54 <_vfprintf_r+0x1378>
    239c:	e59f1bb4 	ldr	r1, [pc, #2996]	; 2f58 <_vfprintf_r+0x137c>
    23a0:	05dd3083 	ldrbeq	r3, [sp, #131]	; 0x83
    23a4:	15cd3083 	strbne	r3, [sp, #131]	; 0x83
    23a8:	e3580047 	cmp	r8, #71	; 0x47
    23ac:	e3a04003 	mov	r4, #3
    23b0:	e3a06000 	mov	r6, #0
    23b4:	d1a01002 	movle	r1, r2
    23b8:	e3c77080 	bic	r7, r7, #128	; 0x80
    23bc:	e58d4020 	str	r4, [sp, #32]
    23c0:	e58d6040 	str	r6, [sp, #64]	; 0x40
    23c4:	e58d104c 	str	r1, [sp, #76]	; 0x4c
    23c8:	e58d7018 	str	r7, [sp, #24]
    23cc:	e58d4038 	str	r4, [sp, #56]	; 0x38
    23d0:	e58d6060 	str	r6, [sp, #96]	; 0x60
    23d4:	eaffff84 	b	21ec <_vfprintf_r+0x610>
    23d8:	e59d6018 	ldr	r6, [sp, #24]
    23dc:	e3866008 	orr	r6, r6, #8
    23e0:	e58d6018 	str	r6, [sp, #24]
    23e4:	e5d38000 	ldrb	r8, [r3]
    23e8:	eafffe5e 	b	1d68 <_vfprintf_r+0x18c>
    23ec:	e59d6018 	ldr	r6, [sp, #24]
    23f0:	e3866010 	orr	r6, r6, #16
    23f4:	e58d6018 	str	r6, [sp, #24]
    23f8:	e59d7018 	ldr	r7, [sp, #24]
    23fc:	e58d3028 	str	r3, [sp, #40]	; 0x28
    2400:	e2173020 	ands	r3, r7, #32
    2404:	0a000074 	beq	25dc <_vfprintf_r+0xa00>
    2408:	e59db03c 	ldr	r11, [sp, #60]	; 0x3c
    240c:	e28b3007 	add	r3, r11, #7
    2410:	e3c33007 	bic	r3, r3, #7
    2414:	e89300c0 	ldm	r3, {r6, r7}
    2418:	e2833008 	add	r3, r3, #8
    241c:	e196c007 	orrs	r12, r6, r7
    2420:	e58d303c 	str	r3, [sp, #60]	; 0x3c
    2424:	03a02000 	moveq	r2, #0
    2428:	13a02001 	movne	r2, #1
    242c:	e3a03000 	mov	r3, #0
    2430:	e3a01000 	mov	r1, #0
    2434:	e5cd1083 	strb	r1, [sp, #131]	; 0x83
    2438:	eaffff41 	b	2144 <_vfprintf_r+0x568>
    243c:	e59d6018 	ldr	r6, [sp, #24]
    2440:	e3866010 	orr	r6, r6, #16
    2444:	e58d6018 	str	r6, [sp, #24]
    2448:	e59d7018 	ldr	r7, [sp, #24]
    244c:	e3170020 	tst	r7, #32
    2450:	e58d3028 	str	r3, [sp, #40]	; 0x28
    2454:	0a000095 	beq	26b0 <_vfprintf_r+0xad4>
    2458:	e59db03c 	ldr	r11, [sp, #60]	; 0x3c
    245c:	e28b3007 	add	r3, r11, #7
    2460:	e3c33007 	bic	r3, r3, #7
    2464:	e89300c0 	ldm	r3, {r6, r7}
    2468:	e2833008 	add	r3, r3, #8
    246c:	e196c007 	orrs	r12, r6, r7
    2470:	e58d303c 	str	r3, [sp, #60]	; 0x3c
    2474:	03a02000 	moveq	r2, #0
    2478:	13a02001 	movne	r2, #1
    247c:	e3a03001 	mov	r3, #1
    2480:	eaffffea 	b	2430 <_vfprintf_r+0x854>
    2484:	e59db018 	ldr	r11, [sp, #24]
    2488:	e59f7acc 	ldr	r7, [pc, #2764]	; 2f5c <_vfprintf_r+0x1380>
    248c:	e31b0020 	tst	r11, #32
    2490:	e58d3028 	str	r3, [sp, #40]	; 0x28
    2494:	e58d7074 	str	r7, [sp, #116]	; 0x74
    2498:	0a000098 	beq	2700 <_vfprintf_r+0xb24>
    249c:	e59dc03c 	ldr	r12, [sp, #60]	; 0x3c
    24a0:	e28c3007 	add	r3, r12, #7
    24a4:	e3c33007 	bic	r3, r3, #7
    24a8:	e2836008 	add	r6, r3, #8
    24ac:	e58d603c 	str	r6, [sp, #60]	; 0x3c
    24b0:	e89300c0 	ldm	r3, {r6, r7}
    24b4:	e59db018 	ldr	r11, [sp, #24]
    24b8:	e31b0001 	tst	r11, #1
    24bc:	1a0002f2 	bne	308c <_vfprintf_r+0x14b0>
    24c0:	e196c007 	orrs	r12, r6, r7
    24c4:	03a02000 	moveq	r2, #0
    24c8:	13a02001 	movne	r2, #1
    24cc:	e3a03002 	mov	r3, #2
    24d0:	eaffffd6 	b	2430 <_vfprintf_r+0x854>
    24d4:	e59d6018 	ldr	r6, [sp, #24]
    24d8:	e3866020 	orr	r6, r6, #32
    24dc:	e58d6018 	str	r6, [sp, #24]
    24e0:	e5d38000 	ldrb	r8, [r3]
    24e4:	eafffe1f 	b	1d68 <_vfprintf_r+0x18c>
    24e8:	e3a06000 	mov	r6, #0
    24ec:	e5cd6083 	strb	r6, [sp, #131]	; 0x83
    24f0:	e59d703c 	ldr	r7, [sp, #60]	; 0x3c
    24f4:	e5977000 	ldr	r7, [r7]
    24f8:	e59db03c 	ldr	r11, [sp, #60]	; 0x3c
    24fc:	e1570006 	cmp	r7, r6
    2500:	e58d704c 	str	r7, [sp, #76]	; 0x4c
    2504:	e58d3028 	str	r3, [sp, #40]	; 0x28
    2508:	e28b7004 	add	r7, r11, #4
    250c:	0a000536 	beq	39ec <_vfprintf_r+0x1e10>
    2510:	e3540000 	cmp	r4, #0
    2514:	e59d004c 	ldr	r0, [sp, #76]	; 0x4c
    2518:	ba000513 	blt	396c <_vfprintf_r+0x1d90>
    251c:	e1a01006 	mov	r1, r6
    2520:	e1a02004 	mov	r2, r4
    2524:	eb0011f7 	bl	6d08 <memchr>
    2528:	e3500000 	cmp	r0, #0
    252c:	0a000584 	beq	3b44 <_vfprintf_r+0x1f68>
    2530:	e59dc04c 	ldr	r12, [sp, #76]	; 0x4c
    2534:	e06c0000 	rsb	r0, r12, r0
    2538:	e1500004 	cmp	r0, r4
    253c:	e58d0038 	str	r0, [sp, #56]	; 0x38
    2540:	e58d6040 	str	r6, [sp, #64]	; 0x40
    2544:	da00049f 	ble	37c8 <_vfprintf_r+0x1bec>
    2548:	e58d703c 	str	r7, [sp, #60]	; 0x3c
    254c:	e59d7040 	ldr	r7, [sp, #64]	; 0x40
    2550:	e1c46fc4 	bic	r6, r4, r4, asr #31
    2554:	e58d6020 	str	r6, [sp, #32]
    2558:	e5dd3083 	ldrb	r3, [sp, #131]	; 0x83
    255c:	e58d4038 	str	r4, [sp, #56]	; 0x38
    2560:	e58d7060 	str	r7, [sp, #96]	; 0x60
    2564:	eaffff20 	b	21ec <_vfprintf_r+0x610>
    2568:	e5d38000 	ldrb	r8, [r3]
    256c:	e358006c 	cmp	r8, #108	; 0x6c
    2570:	059db018 	ldreq	r11, [sp, #24]
    2574:	159dc018 	ldrne	r12, [sp, #24]
    2578:	e1a00003 	mov	r0, r3
    257c:	038bb020 	orreq	r11, r11, #32
    2580:	138cc010 	orrne	r12, r12, #16
    2584:	02833001 	addeq	r3, r3, #1
    2588:	058db018 	streq	r11, [sp, #24]
    258c:	05d08001 	ldrbeq	r8, [r0, #1]
    2590:	158dc018 	strne	r12, [sp, #24]
    2594:	eafffdf3 	b	1d68 <_vfprintf_r+0x18c>
    2598:	e59d4018 	ldr	r4, [sp, #24]
    259c:	e3140020 	tst	r4, #32
    25a0:	e58d3028 	str	r3, [sp, #40]	; 0x28
    25a4:	0a000403 	beq	35b8 <_vfprintf_r+0x19dc>
    25a8:	e59d603c 	ldr	r6, [sp, #60]	; 0x3c
    25ac:	e59d2034 	ldr	r2, [sp, #52]	; 0x34
    25b0:	e5963000 	ldr	r3, [r6]
    25b4:	e1a01fc2 	asr	r1, r2, #31
    25b8:	e2866004 	add	r6, r6, #4
    25bc:	e5832000 	str	r2, [r3]
    25c0:	e5831004 	str	r1, [r3, #4]
    25c4:	e58d603c 	str	r6, [sp, #60]	; 0x3c
    25c8:	eafffdbb 	b	1cbc <_vfprintf_r+0xe0>
    25cc:	e59d7018 	ldr	r7, [sp, #24]
    25d0:	e58d3028 	str	r3, [sp, #40]	; 0x28
    25d4:	e2173020 	ands	r3, r7, #32
    25d8:	1affff8a 	bne	2408 <_vfprintf_r+0x82c>
    25dc:	e59d6018 	ldr	r6, [sp, #24]
    25e0:	e2161010 	ands	r1, r6, #16
    25e4:	0a00041e 	beq	3664 <_vfprintf_r+0x1a88>
    25e8:	e59d703c 	ldr	r7, [sp, #60]	; 0x3c
    25ec:	e59db03c 	ldr	r11, [sp, #60]	; 0x3c
    25f0:	e5972000 	ldr	r2, [r7]
    25f4:	e3a07000 	mov	r7, #0
    25f8:	e1a06002 	mov	r6, r2
    25fc:	e28bb004 	add	r11, r11, #4
    2600:	e0522007 	subs	r2, r2, r7
    2604:	13a02001 	movne	r2, #1
    2608:	e58db03c 	str	r11, [sp, #60]	; 0x3c
    260c:	eaffff87 	b	2430 <_vfprintf_r+0x854>
    2610:	e3580000 	cmp	r8, #0
    2614:	e58d3028 	str	r3, [sp, #40]	; 0x28
    2618:	0a000461 	beq	37a4 <_vfprintf_r+0x1bc8>
    261c:	e3a0c001 	mov	r12, #1
    2620:	e3a03000 	mov	r3, #0
    2624:	e28d40b0 	add	r4, sp, #176	; 0xb0
    2628:	e58dc020 	str	r12, [sp, #32]
    262c:	e5cd80b0 	strb	r8, [sp, #176]	; 0xb0
    2630:	e5cd3083 	strb	r3, [sp, #131]	; 0x83
    2634:	e58dc038 	str	r12, [sp, #56]	; 0x38
    2638:	e58d404c 	str	r4, [sp, #76]	; 0x4c
    263c:	e3a04000 	mov	r4, #0
    2640:	e58d4040 	str	r4, [sp, #64]	; 0x40
    2644:	e58d4060 	str	r4, [sp, #96]	; 0x60
    2648:	eafffeec 	b	2200 <_vfprintf_r+0x624>
    264c:	e5dd0083 	ldrb	r0, [sp, #131]	; 0x83
    2650:	e3500000 	cmp	r0, #0
    2654:	1a00036e 	bne	3414 <_vfprintf_r+0x1838>
    2658:	e5cd1083 	strb	r1, [sp, #131]	; 0x83
    265c:	e5d38000 	ldrb	r8, [r3]
    2660:	eafffdc0 	b	1d68 <_vfprintf_r+0x18c>
    2664:	e59d7018 	ldr	r7, [sp, #24]
    2668:	e3877001 	orr	r7, r7, #1
    266c:	e58d7018 	str	r7, [sp, #24]
    2670:	e5d38000 	ldrb	r8, [r3]
    2674:	eafffdbb 	b	1d68 <_vfprintf_r+0x18c>
    2678:	e59db03c 	ldr	r11, [sp, #60]	; 0x3c
    267c:	e59bb000 	ldr	r11, [r11]
    2680:	e59dc03c 	ldr	r12, [sp, #60]	; 0x3c
    2684:	e35b0000 	cmp	r11, #0
    2688:	e58db030 	str	r11, [sp, #48]	; 0x30
    268c:	e28c0004 	add	r0, r12, #4
    2690:	bafffe12 	blt	1ee0 <_vfprintf_r+0x304>
    2694:	e5d38000 	ldrb	r8, [r3]
    2698:	e58d003c 	str	r0, [sp, #60]	; 0x3c
    269c:	eafffdb1 	b	1d68 <_vfprintf_r+0x18c>
    26a0:	e59d7018 	ldr	r7, [sp, #24]
    26a4:	e3170020 	tst	r7, #32
    26a8:	e58d3028 	str	r3, [sp, #40]	; 0x28
    26ac:	1affff69 	bne	2458 <_vfprintf_r+0x87c>
    26b0:	e59d6018 	ldr	r6, [sp, #24]
    26b4:	e3160010 	tst	r6, #16
    26b8:	0a0003e3 	beq	364c <_vfprintf_r+0x1a70>
    26bc:	e59d703c 	ldr	r7, [sp, #60]	; 0x3c
    26c0:	e5972000 	ldr	r2, [r7]
    26c4:	e59db03c 	ldr	r11, [sp, #60]	; 0x3c
    26c8:	e3a07000 	mov	r7, #0
    26cc:	e1a06002 	mov	r6, r2
    26d0:	e28bb004 	add	r11, r11, #4
    26d4:	e0522007 	subs	r2, r2, r7
    26d8:	13a02001 	movne	r2, #1
    26dc:	e58db03c 	str	r11, [sp, #60]	; 0x3c
    26e0:	e3a03001 	mov	r3, #1
    26e4:	eaffff51 	b	2430 <_vfprintf_r+0x854>
    26e8:	e59db018 	ldr	r11, [sp, #24]
    26ec:	e59f686c 	ldr	r6, [pc, #2156]	; 2f60 <_vfprintf_r+0x1384>
    26f0:	e31b0020 	tst	r11, #32
    26f4:	e58d3028 	str	r3, [sp, #40]	; 0x28
    26f8:	e58d6074 	str	r6, [sp, #116]	; 0x74
    26fc:	1affff66 	bne	249c <_vfprintf_r+0x8c0>
    2700:	e59d7018 	ldr	r7, [sp, #24]
    2704:	e3170010 	tst	r7, #16
    2708:	0a0003c4 	beq	3620 <_vfprintf_r+0x1a44>
    270c:	e59db03c 	ldr	r11, [sp, #60]	; 0x3c
    2710:	e59b3000 	ldr	r3, [r11]
    2714:	e28bb004 	add	r11, r11, #4
    2718:	e1a06003 	mov	r6, r3
    271c:	e3a07000 	mov	r7, #0
    2720:	e58db03c 	str	r11, [sp, #60]	; 0x3c
    2724:	eaffff62 	b	24b4 <_vfprintf_r+0x8d8>
    2728:	e59d7018 	ldr	r7, [sp, #24]
    272c:	e3170020 	tst	r7, #32
    2730:	e58d3028 	str	r3, [sp, #40]	; 0x28
    2734:	1afffe73 	bne	2108 <_vfprintf_r+0x52c>
    2738:	e59dc018 	ldr	r12, [sp, #24]
    273c:	e31c0010 	tst	r12, #16
    2740:	0a0003b0 	beq	3608 <_vfprintf_r+0x1a2c>
    2744:	e59d603c 	ldr	r6, [sp, #60]	; 0x3c
    2748:	e5963000 	ldr	r3, [r6]
    274c:	e59db03c 	ldr	r11, [sp, #60]	; 0x3c
    2750:	e1a07fc3 	asr	r7, r3, #31
    2754:	e28bb004 	add	r11, r11, #4
    2758:	e1a06003 	mov	r6, r3
    275c:	e1a02003 	mov	r2, r3
    2760:	e58db03c 	str	r11, [sp, #60]	; 0x3c
    2764:	e1a03007 	mov	r3, r7
    2768:	eafffe6e 	b	2128 <_vfprintf_r+0x54c>
    276c:	e59d7018 	ldr	r7, [sp, #24]
    2770:	e3877040 	orr	r7, r7, #64	; 0x40
    2774:	e58d7018 	str	r7, [sp, #24]
    2778:	e5d38000 	ldrb	r8, [r3]
    277c:	eafffd79 	b	1d68 <_vfprintf_r+0x18c>
    2780:	e58d3028 	str	r3, [sp, #40]	; 0x28
    2784:	e59d303c 	ldr	r3, [sp, #60]	; 0x3c
    2788:	e59db03c 	ldr	r11, [sp, #60]	; 0x3c
    278c:	e5933000 	ldr	r3, [r3]
    2790:	e3a07001 	mov	r7, #1
    2794:	e28bb004 	add	r11, r11, #4
    2798:	e5cd30b0 	strb	r3, [sp, #176]	; 0xb0
    279c:	e28dc0b0 	add	r12, sp, #176	; 0xb0
    27a0:	e3a03000 	mov	r3, #0
    27a4:	e58d7020 	str	r7, [sp, #32]
    27a8:	e58db03c 	str	r11, [sp, #60]	; 0x3c
    27ac:	e5cd3083 	strb	r3, [sp, #131]	; 0x83
    27b0:	e58d7038 	str	r7, [sp, #56]	; 0x38
    27b4:	e58dc04c 	str	r12, [sp, #76]	; 0x4c
    27b8:	eaffff9f 	b	263c <_vfprintf_r+0xa60>
    27bc:	e59dc018 	ldr	r12, [sp, #24]
    27c0:	e58d3028 	str	r3, [sp, #40]	; 0x28
    27c4:	e59d303c 	ldr	r3, [sp, #60]	; 0x3c
    27c8:	e38cc002 	orr	r12, r12, #2
    27cc:	e5932000 	ldr	r2, [r3]
    27d0:	e58dc018 	str	r12, [sp, #24]
    27d4:	e3a07000 	mov	r7, #0
    27d8:	e59fc780 	ldr	r12, [pc, #1920]	; 2f60 <_vfprintf_r+0x1384>
    27dc:	e283b004 	add	r11, r3, #4
    27e0:	e3a08078 	mov	r8, #120	; 0x78
    27e4:	e3a03030 	mov	r3, #48	; 0x30
    27e8:	e1a06002 	mov	r6, r2
    27ec:	e0522007 	subs	r2, r2, r7
    27f0:	e5cd3084 	strb	r3, [sp, #132]	; 0x84
    27f4:	e58db03c 	str	r11, [sp, #60]	; 0x3c
    27f8:	e5cd8085 	strb	r8, [sp, #133]	; 0x85
    27fc:	13a02001 	movne	r2, #1
    2800:	e58dc074 	str	r12, [sp, #116]	; 0x74
    2804:	e3a03002 	mov	r3, #2
    2808:	eaffff08 	b	2430 <_vfprintf_r+0x854>
    280c:	e59d60ac 	ldr	r6, [sp, #172]	; 0xac
    2810:	e5dd3083 	ldrb	r3, [sp, #131]	; 0x83
    2814:	e3530000 	cmp	r3, #0
    2818:	0a00000c 	beq	2850 <_vfprintf_r+0xc74>
    281c:	e59d40a8 	ldr	r4, [sp, #168]	; 0xa8
    2820:	e28d3083 	add	r3, sp, #131	; 0x83
    2824:	e2844001 	add	r4, r4, #1
    2828:	e5853000 	str	r3, [r5]
    282c:	e2866001 	add	r6, r6, #1
    2830:	e3540007 	cmp	r4, #7
    2834:	e3a03001 	mov	r3, #1
    2838:	e5853004 	str	r3, [r5, #4]
    283c:	e28d7090 	add	r7, sp, #144	; 0x90
    2840:	e58d60ac 	str	r6, [sp, #172]	; 0xac
    2844:	e58d40a8 	str	r4, [sp, #168]	; 0xa8
    2848:	d2855008 	addle	r5, r5, #8
    284c:	ca000179 	bgt	2e38 <_vfprintf_r+0x125c>
    2850:	e59dc048 	ldr	r12, [sp, #72]	; 0x48
    2854:	e35c0000 	cmp	r12, #0
    2858:	0a00000b 	beq	288c <_vfprintf_r+0xcb0>
    285c:	e59d40a8 	ldr	r4, [sp, #168]	; 0xa8
    2860:	e28d3084 	add	r3, sp, #132	; 0x84
    2864:	e2844001 	add	r4, r4, #1
    2868:	e5853000 	str	r3, [r5]
    286c:	e2866002 	add	r6, r6, #2
    2870:	e3540007 	cmp	r4, #7
    2874:	e3a03002 	mov	r3, #2
    2878:	e5853004 	str	r3, [r5, #4]
    287c:	e58d60ac 	str	r6, [sp, #172]	; 0xac
    2880:	e58d40a8 	str	r4, [sp, #168]	; 0xa8
    2884:	d2855008 	addle	r5, r5, #8
    2888:	ca000161 	bgt	2e14 <_vfprintf_r+0x1238>
    288c:	e59d4050 	ldr	r4, [sp, #80]	; 0x50
    2890:	e3540080 	cmp	r4, #128	; 0x80
    2894:	0a0000e3 	beq	2c28 <_vfprintf_r+0x104c>
    2898:	e59d4040 	ldr	r4, [sp, #64]	; 0x40
    289c:	e59d7038 	ldr	r7, [sp, #56]	; 0x38
    28a0:	e0679004 	rsb	r9, r7, r4
    28a4:	e3590000 	cmp	r9, #0
    28a8:	da000031 	ble	2974 <_vfprintf_r+0xd98>
    28ac:	e3590010 	cmp	r9, #16
    28b0:	e59d40a8 	ldr	r4, [sp, #168]	; 0xa8
    28b4:	e59f76ac 	ldr	r7, [pc, #1708]	; 2f68 <_vfprintf_r+0x138c>
    28b8:	da00001d 	ble	2934 <_vfprintf_r+0xd58>
    28bc:	e28da0a4 	add	r10, sp, #164	; 0xa4
    28c0:	e58d8040 	str	r8, [sp, #64]	; 0x40
    28c4:	e3a0b010 	mov	r11, #16
    28c8:	e1a0800a 	mov	r8, r10
    28cc:	e59da02c 	ldr	r10, [sp, #44]	; 0x2c
    28d0:	ea000002 	b	28e0 <_vfprintf_r+0xd04>
    28d4:	e2499010 	sub	r9, r9, #16
    28d8:	e3590010 	cmp	r9, #16
    28dc:	da000013 	ble	2930 <_vfprintf_r+0xd54>
    28e0:	e2844001 	add	r4, r4, #1
    28e4:	e3540007 	cmp	r4, #7
    28e8:	e2866010 	add	r6, r6, #16
    28ec:	e8850880 	stm	r5, {r7, r11}
    28f0:	e58d60ac 	str	r6, [sp, #172]	; 0xac
    28f4:	e58d40a8 	str	r4, [sp, #168]	; 0xa8
    28f8:	d2855008 	addle	r5, r5, #8
    28fc:	dafffff4 	ble	28d4 <_vfprintf_r+0xcf8>
    2900:	e1a0000a 	mov	r0, r10
    2904:	e59d101c 	ldr	r1, [sp, #28]
    2908:	e1a02008 	mov	r2, r8
    290c:	eb0016c0 	bl	8414 <__sprint_r>
    2910:	e3500000 	cmp	r0, #0
    2914:	1afffd95 	bne	1f70 <_vfprintf_r+0x394>
    2918:	e2499010 	sub	r9, r9, #16
    291c:	e28d40a8 	add	r4, sp, #168	; 0xa8
    2920:	e3590010 	cmp	r9, #16
    2924:	e8940050 	ldm	r4, {r4, r6}
    2928:	e28d5d05 	add	r5, sp, #320	; 0x140
    292c:	caffffeb 	bgt	28e0 <_vfprintf_r+0xd04>
    2930:	e59d8040 	ldr	r8, [sp, #64]	; 0x40
    2934:	e2844001 	add	r4, r4, #1
    2938:	e0866009 	add	r6, r6, r9
    293c:	e3540007 	cmp	r4, #7
    2940:	e8850280 	stm	r5, {r7, r9}
    2944:	e58d60ac 	str	r6, [sp, #172]	; 0xac
    2948:	e58d40a8 	str	r4, [sp, #168]	; 0xa8
    294c:	d2855008 	addle	r5, r5, #8
    2950:	da000007 	ble	2974 <_vfprintf_r+0xd98>
    2954:	e59d002c 	ldr	r0, [sp, #44]	; 0x2c
    2958:	e59d101c 	ldr	r1, [sp, #28]
    295c:	e28d20a4 	add	r2, sp, #164	; 0xa4
    2960:	eb0016ab 	bl	8414 <__sprint_r>
    2964:	e3500000 	cmp	r0, #0
    2968:	1afffd80 	bne	1f70 <_vfprintf_r+0x394>
    296c:	e59d60ac 	ldr	r6, [sp, #172]	; 0xac
    2970:	e28d5d05 	add	r5, sp, #320	; 0x140
    2974:	e59d4018 	ldr	r4, [sp, #24]
    2978:	e3140c01 	tst	r4, #256	; 0x100
    297c:	1a000052 	bne	2acc <_vfprintf_r+0xef0>
    2980:	e59d40a8 	ldr	r4, [sp, #168]	; 0xa8
    2984:	e59d7038 	ldr	r7, [sp, #56]	; 0x38
    2988:	e2844001 	add	r4, r4, #1
    298c:	e59dc04c 	ldr	r12, [sp, #76]	; 0x4c
    2990:	e0866007 	add	r6, r6, r7
    2994:	e3540007 	cmp	r4, #7
    2998:	e585c000 	str	r12, [r5]
    299c:	e5857004 	str	r7, [r5, #4]
    29a0:	e58d60ac 	str	r6, [sp, #172]	; 0xac
    29a4:	e58d40a8 	str	r4, [sp, #168]	; 0xa8
    29a8:	ca00010c 	bgt	2de0 <_vfprintf_r+0x1204>
    29ac:	e2855008 	add	r5, r5, #8
    29b0:	e59d4018 	ldr	r4, [sp, #24]
    29b4:	e3140004 	tst	r4, #4
    29b8:	0a000036 	beq	2a98 <_vfprintf_r+0xebc>
    29bc:	e59d7030 	ldr	r7, [sp, #48]	; 0x30
    29c0:	e59db020 	ldr	r11, [sp, #32]
    29c4:	e06b8007 	rsb	r8, r11, r7
    29c8:	e3580000 	cmp	r8, #0
    29cc:	da000031 	ble	2a98 <_vfprintf_r+0xebc>
    29d0:	e3580010 	cmp	r8, #16
    29d4:	e59d40a8 	ldr	r4, [sp, #168]	; 0xa8
    29d8:	e59f9570 	ldr	r9, [pc, #1392]	; 2f50 <_vfprintf_r+0x1374>
    29dc:	da00001e 	ble	2a5c <_vfprintf_r+0xe80>
    29e0:	e28d70a4 	add	r7, sp, #164	; 0xa4
    29e4:	e1a03007 	mov	r3, r7
    29e8:	e3a0a010 	mov	r10, #16
    29ec:	e1a07009 	mov	r7, r9
    29f0:	e59db02c 	ldr	r11, [sp, #44]	; 0x2c
    29f4:	e1a09003 	mov	r9, r3
    29f8:	ea000002 	b	2a08 <_vfprintf_r+0xe2c>
    29fc:	e2488010 	sub	r8, r8, #16
    2a00:	e3580010 	cmp	r8, #16
    2a04:	da000013 	ble	2a58 <_vfprintf_r+0xe7c>
    2a08:	e2844001 	add	r4, r4, #1
    2a0c:	e3540007 	cmp	r4, #7
    2a10:	e2866010 	add	r6, r6, #16
    2a14:	e8850480 	stm	r5, {r7, r10}
    2a18:	e58d60ac 	str	r6, [sp, #172]	; 0xac
    2a1c:	e58d40a8 	str	r4, [sp, #168]	; 0xa8
    2a20:	d2855008 	addle	r5, r5, #8
    2a24:	dafffff4 	ble	29fc <_vfprintf_r+0xe20>
    2a28:	e1a0000b 	mov	r0, r11
    2a2c:	e59d101c 	ldr	r1, [sp, #28]
    2a30:	e1a02009 	mov	r2, r9
    2a34:	eb001676 	bl	8414 <__sprint_r>
    2a38:	e3500000 	cmp	r0, #0
    2a3c:	1afffd4b 	bne	1f70 <_vfprintf_r+0x394>
    2a40:	e2488010 	sub	r8, r8, #16
    2a44:	e28d40a8 	add	r4, sp, #168	; 0xa8
    2a48:	e3580010 	cmp	r8, #16
    2a4c:	e8940050 	ldm	r4, {r4, r6}
    2a50:	e28d5d05 	add	r5, sp, #320	; 0x140
    2a54:	caffffeb 	bgt	2a08 <_vfprintf_r+0xe2c>
    2a58:	e1a09007 	mov	r9, r7
    2a5c:	e2844001 	add	r4, r4, #1
    2a60:	e0886006 	add	r6, r8, r6
    2a64:	e3540007 	cmp	r4, #7
    2a68:	e5859000 	str	r9, [r5]
    2a6c:	e5858004 	str	r8, [r5, #4]
    2a70:	e58d60ac 	str	r6, [sp, #172]	; 0xac
    2a74:	e58d40a8 	str	r4, [sp, #168]	; 0xa8
    2a78:	da000006 	ble	2a98 <_vfprintf_r+0xebc>
    2a7c:	e59d002c 	ldr	r0, [sp, #44]	; 0x2c
    2a80:	e59d101c 	ldr	r1, [sp, #28]
    2a84:	e28d20a4 	add	r2, sp, #164	; 0xa4
    2a88:	eb001661 	bl	8414 <__sprint_r>
    2a8c:	e3500000 	cmp	r0, #0
    2a90:	1afffd36 	bne	1f70 <_vfprintf_r+0x394>
    2a94:	e59d60ac 	ldr	r6, [sp, #172]	; 0xac
    2a98:	e59d4034 	ldr	r4, [sp, #52]	; 0x34
    2a9c:	e59d7020 	ldr	r7, [sp, #32]
    2aa0:	e59db030 	ldr	r11, [sp, #48]	; 0x30
    2aa4:	e157000b 	cmp	r7, r11
    2aa8:	a0844007 	addge	r4, r4, r7
    2aac:	b084400b 	addlt	r4, r4, r11
    2ab0:	e3560000 	cmp	r6, #0
    2ab4:	e58d4034 	str	r4, [sp, #52]	; 0x34
    2ab8:	1afffd26 	bne	1f58 <_vfprintf_r+0x37c>
    2abc:	e3a03000 	mov	r3, #0
    2ac0:	e58d30a8 	str	r3, [sp, #168]	; 0xa8
    2ac4:	e28d5d05 	add	r5, sp, #320	; 0x140
    2ac8:	eafffc7b 	b	1cbc <_vfprintf_r+0xe0>
    2acc:	e3580065 	cmp	r8, #101	; 0x65
    2ad0:	da00008c 	ble	2d08 <_vfprintf_r+0x112c>
    2ad4:	e28d1068 	add	r1, sp, #104	; 0x68
    2ad8:	e8910003 	ldm	r1, {r0, r1}
    2adc:	e3a02000 	mov	r2, #0
    2ae0:	e3a03000 	mov	r3, #0
    2ae4:	ebfffa07 	bl	1308 <__aeabi_dcmpeq>
    2ae8:	e3500000 	cmp	r0, #0
    2aec:	0a0000db 	beq	2e60 <_vfprintf_r+0x1284>
    2af0:	e59d40a8 	ldr	r4, [sp, #168]	; 0xa8
    2af4:	e59f3468 	ldr	r3, [pc, #1128]	; 2f64 <_vfprintf_r+0x1388>
    2af8:	e2844001 	add	r4, r4, #1
    2afc:	e5853000 	str	r3, [r5]
    2b00:	e2866001 	add	r6, r6, #1
    2b04:	e3540007 	cmp	r4, #7
    2b08:	e3a03001 	mov	r3, #1
    2b0c:	e5853004 	str	r3, [r5, #4]
    2b10:	e58d60ac 	str	r6, [sp, #172]	; 0xac
    2b14:	e58d40a8 	str	r4, [sp, #168]	; 0xa8
    2b18:	d2855008 	addle	r5, r5, #8
    2b1c:	ca0002de 	bgt	369c <_vfprintf_r+0x1ac0>
    2b20:	e59d3088 	ldr	r3, [sp, #136]	; 0x88
    2b24:	e59d7044 	ldr	r7, [sp, #68]	; 0x44
    2b28:	e1530007 	cmp	r3, r7
    2b2c:	ba000002 	blt	2b3c <_vfprintf_r+0xf60>
    2b30:	e59db018 	ldr	r11, [sp, #24]
    2b34:	e31b0001 	tst	r11, #1
    2b38:	0affff9c 	beq	29b0 <_vfprintf_r+0xdd4>
    2b3c:	e59d40a8 	ldr	r4, [sp, #168]	; 0xa8
    2b40:	e59dc064 	ldr	r12, [sp, #100]	; 0x64
    2b44:	e2844001 	add	r4, r4, #1
    2b48:	e59d7058 	ldr	r7, [sp, #88]	; 0x58
    2b4c:	e086600c 	add	r6, r6, r12
    2b50:	e3540007 	cmp	r4, #7
    2b54:	e8851080 	stm	r5, {r7, r12}
    2b58:	e58d60ac 	str	r6, [sp, #172]	; 0xac
    2b5c:	e58d40a8 	str	r4, [sp, #168]	; 0xa8
    2b60:	d2855008 	addle	r5, r5, #8
    2b64:	ca000362 	bgt	38f4 <_vfprintf_r+0x1d18>
    2b68:	e59dc044 	ldr	r12, [sp, #68]	; 0x44
    2b6c:	e24ca001 	sub	r10, r12, #1
    2b70:	e35a0000 	cmp	r10, #0
    2b74:	daffff8d 	ble	29b0 <_vfprintf_r+0xdd4>
    2b78:	e35a0010 	cmp	r10, #16
    2b7c:	e59d40a8 	ldr	r4, [sp, #168]	; 0xa8
    2b80:	e59f73e0 	ldr	r7, [pc, #992]	; 2f68 <_vfprintf_r+0x138c>
    2b84:	da00014c 	ble	30bc <_vfprintf_r+0x14e0>
    2b88:	e28d80a4 	add	r8, sp, #164	; 0xa4
    2b8c:	e1a03008 	mov	r3, r8
    2b90:	e3a09010 	mov	r9, #16
    2b94:	e1a08007 	mov	r8, r7
    2b98:	e59db02c 	ldr	r11, [sp, #44]	; 0x2c
    2b9c:	e1a07003 	mov	r7, r3
    2ba0:	ea000002 	b	2bb0 <_vfprintf_r+0xfd4>
    2ba4:	e24aa010 	sub	r10, r10, #16
    2ba8:	e35a0010 	cmp	r10, #16
    2bac:	da000141 	ble	30b8 <_vfprintf_r+0x14dc>
    2bb0:	e2844001 	add	r4, r4, #1
    2bb4:	e3540007 	cmp	r4, #7
    2bb8:	e2866010 	add	r6, r6, #16
    2bbc:	e8850300 	stm	r5, {r8, r9}
    2bc0:	e58d60ac 	str	r6, [sp, #172]	; 0xac
    2bc4:	e58d40a8 	str	r4, [sp, #168]	; 0xa8
    2bc8:	d2855008 	addle	r5, r5, #8
    2bcc:	dafffff4 	ble	2ba4 <_vfprintf_r+0xfc8>
    2bd0:	e1a0000b 	mov	r0, r11
    2bd4:	e59d101c 	ldr	r1, [sp, #28]
    2bd8:	e1a02007 	mov	r2, r7
    2bdc:	eb00160c 	bl	8414 <__sprint_r>
    2be0:	e3500000 	cmp	r0, #0
    2be4:	1afffce1 	bne	1f70 <_vfprintf_r+0x394>
    2be8:	e28d40a8 	add	r4, sp, #168	; 0xa8
    2bec:	e8940050 	ldm	r4, {r4, r6}
    2bf0:	e28d5d05 	add	r5, sp, #320	; 0x140
    2bf4:	eaffffea 	b	2ba4 <_vfprintf_r+0xfc8>
    2bf8:	e3530000 	cmp	r3, #0
    2bfc:	1a000080 	bne	2e04 <_vfprintf_r+0x1228>
    2c00:	e59d6018 	ldr	r6, [sp, #24]
    2c04:	e3160001 	tst	r6, #1
    2c08:	0a0000f9 	beq	2ff4 <_vfprintf_r+0x1418>
    2c0c:	e59d707c 	ldr	r7, [sp, #124]	; 0x7c
    2c10:	e59db05c 	ldr	r11, [sp, #92]	; 0x5c
    2c14:	e3a03030 	mov	r3, #48	; 0x30
    2c18:	e5cd30d7 	strb	r3, [sp, #215]	; 0xd7
    2c1c:	e58d7038 	str	r7, [sp, #56]	; 0x38
    2c20:	e58db04c 	str	r11, [sp, #76]	; 0x4c
    2c24:	eafffd68 	b	21cc <_vfprintf_r+0x5f0>
    2c28:	e59d7030 	ldr	r7, [sp, #48]	; 0x30
    2c2c:	e59db020 	ldr	r11, [sp, #32]
    2c30:	e06b9007 	rsb	r9, r11, r7
    2c34:	e3590000 	cmp	r9, #0
    2c38:	daffff16 	ble	2898 <_vfprintf_r+0xcbc>
    2c3c:	e3590010 	cmp	r9, #16
    2c40:	e59d40a8 	ldr	r4, [sp, #168]	; 0xa8
    2c44:	e59f731c 	ldr	r7, [pc, #796]	; 2f68 <_vfprintf_r+0x138c>
    2c48:	da00001d 	ble	2cc4 <_vfprintf_r+0x10e8>
    2c4c:	e28da0a4 	add	r10, sp, #164	; 0xa4
    2c50:	e58d8048 	str	r8, [sp, #72]	; 0x48
    2c54:	e3a0b010 	mov	r11, #16
    2c58:	e1a0800a 	mov	r8, r10
    2c5c:	e59da02c 	ldr	r10, [sp, #44]	; 0x2c
    2c60:	ea000002 	b	2c70 <_vfprintf_r+0x1094>
    2c64:	e2499010 	sub	r9, r9, #16
    2c68:	e3590010 	cmp	r9, #16
    2c6c:	da000013 	ble	2cc0 <_vfprintf_r+0x10e4>
    2c70:	e2844001 	add	r4, r4, #1
    2c74:	e3540007 	cmp	r4, #7
    2c78:	e2866010 	add	r6, r6, #16
    2c7c:	e8850880 	stm	r5, {r7, r11}
    2c80:	e58d60ac 	str	r6, [sp, #172]	; 0xac
    2c84:	e58d40a8 	str	r4, [sp, #168]	; 0xa8
    2c88:	d2855008 	addle	r5, r5, #8
    2c8c:	dafffff4 	ble	2c64 <_vfprintf_r+0x1088>
    2c90:	e1a0000a 	mov	r0, r10
    2c94:	e59d101c 	ldr	r1, [sp, #28]
    2c98:	e1a02008 	mov	r2, r8
    2c9c:	eb0015dc 	bl	8414 <__sprint_r>
    2ca0:	e3500000 	cmp	r0, #0
    2ca4:	1afffcb1 	bne	1f70 <_vfprintf_r+0x394>
    2ca8:	e2499010 	sub	r9, r9, #16
    2cac:	e28d40a8 	add	r4, sp, #168	; 0xa8
    2cb0:	e3590010 	cmp	r9, #16
    2cb4:	e8940050 	ldm	r4, {r4, r6}
    2cb8:	e28d5d05 	add	r5, sp, #320	; 0x140
    2cbc:	caffffeb 	bgt	2c70 <_vfprintf_r+0x1094>
    2cc0:	e59d8048 	ldr	r8, [sp, #72]	; 0x48
    2cc4:	e2844001 	add	r4, r4, #1
    2cc8:	e0866009 	add	r6, r6, r9
    2ccc:	e3540007 	cmp	r4, #7
    2cd0:	e8850280 	stm	r5, {r7, r9}
    2cd4:	e58d60ac 	str	r6, [sp, #172]	; 0xac
    2cd8:	e58d40a8 	str	r4, [sp, #168]	; 0xa8
    2cdc:	d2855008 	addle	r5, r5, #8
    2ce0:	dafffeec 	ble	2898 <_vfprintf_r+0xcbc>
    2ce4:	e59d002c 	ldr	r0, [sp, #44]	; 0x2c
    2ce8:	e59d101c 	ldr	r1, [sp, #28]
    2cec:	e28d20a4 	add	r2, sp, #164	; 0xa4
    2cf0:	eb0015c7 	bl	8414 <__sprint_r>
    2cf4:	e3500000 	cmp	r0, #0
    2cf8:	1afffc9c 	bne	1f70 <_vfprintf_r+0x394>
    2cfc:	e59d60ac 	ldr	r6, [sp, #172]	; 0xac
    2d00:	e28d5d05 	add	r5, sp, #320	; 0x140
    2d04:	eafffee3 	b	2898 <_vfprintf_r+0xcbc>
    2d08:	e59d4044 	ldr	r4, [sp, #68]	; 0x44
    2d0c:	e3540001 	cmp	r4, #1
    2d10:	e59d40a8 	ldr	r4, [sp, #168]	; 0xa8
    2d14:	e2866001 	add	r6, r6, #1
    2d18:	e2844001 	add	r4, r4, #1
    2d1c:	da000156 	ble	327c <_vfprintf_r+0x16a0>
    2d20:	e59dc04c 	ldr	r12, [sp, #76]	; 0x4c
    2d24:	e3540007 	cmp	r4, #7
    2d28:	e3a03001 	mov	r3, #1
    2d2c:	e585c000 	str	r12, [r5]
    2d30:	e5853004 	str	r3, [r5, #4]
    2d34:	e58d60ac 	str	r6, [sp, #172]	; 0xac
    2d38:	e58d40a8 	str	r4, [sp, #168]	; 0xa8
    2d3c:	d2855008 	addle	r5, r5, #8
    2d40:	ca000160 	bgt	32c8 <_vfprintf_r+0x16ec>
    2d44:	e59d7064 	ldr	r7, [sp, #100]	; 0x64
    2d48:	e2844001 	add	r4, r4, #1
    2d4c:	e59db058 	ldr	r11, [sp, #88]	; 0x58
    2d50:	e0866007 	add	r6, r6, r7
    2d54:	e3540007 	cmp	r4, #7
    2d58:	e585b000 	str	r11, [r5]
    2d5c:	e5857004 	str	r7, [r5, #4]
    2d60:	e58d60ac 	str	r6, [sp, #172]	; 0xac
    2d64:	e58d40a8 	str	r4, [sp, #168]	; 0xa8
    2d68:	d2855008 	addle	r5, r5, #8
    2d6c:	ca00015f 	bgt	32f0 <_vfprintf_r+0x1714>
    2d70:	e28d1068 	add	r1, sp, #104	; 0x68
    2d74:	e8910003 	ldm	r1, {r0, r1}
    2d78:	e3a02000 	mov	r2, #0
    2d7c:	e3a03000 	mov	r3, #0
    2d80:	ebfff960 	bl	1308 <__aeabi_dcmpeq>
    2d84:	e3500000 	cmp	r0, #0
    2d88:	e59d7044 	ldr	r7, [sp, #68]	; 0x44
    2d8c:	1a00009c 	bne	3004 <_vfprintf_r+0x1428>
    2d90:	e59dc04c 	ldr	r12, [sp, #76]	; 0x4c
    2d94:	e2473001 	sub	r3, r7, #1
    2d98:	e2844001 	add	r4, r4, #1
    2d9c:	e28c2001 	add	r2, r12, #1
    2da0:	e0866003 	add	r6, r6, r3
    2da4:	e3540007 	cmp	r4, #7
    2da8:	e885000c 	stm	r5, {r2, r3}
    2dac:	e58d60ac 	str	r6, [sp, #172]	; 0xac
    2db0:	e58d40a8 	str	r4, [sp, #168]	; 0xa8
    2db4:	ca00015f 	bgt	3338 <_vfprintf_r+0x175c>
    2db8:	e2855008 	add	r5, r5, #8
    2dbc:	e59dc070 	ldr	r12, [sp, #112]	; 0x70
    2dc0:	e2844001 	add	r4, r4, #1
    2dc4:	e086600c 	add	r6, r6, r12
    2dc8:	e28d3094 	add	r3, sp, #148	; 0x94
    2dcc:	e3540007 	cmp	r4, #7
    2dd0:	e8851008 	stm	r5, {r3, r12}
    2dd4:	e58d60ac 	str	r6, [sp, #172]	; 0xac
    2dd8:	e58d40a8 	str	r4, [sp, #168]	; 0xa8
    2ddc:	dafffef2 	ble	29ac <_vfprintf_r+0xdd0>
    2de0:	e59d002c 	ldr	r0, [sp, #44]	; 0x2c
    2de4:	e59d101c 	ldr	r1, [sp, #28]
    2de8:	e28d20a4 	add	r2, sp, #164	; 0xa4
    2dec:	eb001588 	bl	8414 <__sprint_r>
    2df0:	e3500000 	cmp	r0, #0
    2df4:	1afffc5d 	bne	1f70 <_vfprintf_r+0x394>
    2df8:	e28d5d05 	add	r5, sp, #320	; 0x140
    2dfc:	e59d60ac 	ldr	r6, [sp, #172]	; 0xac
    2e00:	eafffeea 	b	29b0 <_vfprintf_r+0xdd4>
    2e04:	e59dc054 	ldr	r12, [sp, #84]	; 0x54
    2e08:	e58d2038 	str	r2, [sp, #56]	; 0x38
    2e0c:	e58dc04c 	str	r12, [sp, #76]	; 0x4c
    2e10:	eafffced 	b	21cc <_vfprintf_r+0x5f0>
    2e14:	e59d002c 	ldr	r0, [sp, #44]	; 0x2c
    2e18:	e59d101c 	ldr	r1, [sp, #28]
    2e1c:	e28d20a4 	add	r2, sp, #164	; 0xa4
    2e20:	eb00157b 	bl	8414 <__sprint_r>
    2e24:	e3500000 	cmp	r0, #0
    2e28:	1afffc50 	bne	1f70 <_vfprintf_r+0x394>
    2e2c:	e59d60ac 	ldr	r6, [sp, #172]	; 0xac
    2e30:	e28d5d05 	add	r5, sp, #320	; 0x140
    2e34:	eafffe94 	b	288c <_vfprintf_r+0xcb0>
    2e38:	e59d002c 	ldr	r0, [sp, #44]	; 0x2c
    2e3c:	e59d101c 	ldr	r1, [sp, #28]
    2e40:	e28d20a4 	add	r2, sp, #164	; 0xa4
    2e44:	eb001572 	bl	8414 <__sprint_r>
    2e48:	e3500000 	cmp	r0, #0
    2e4c:	e28db0b0 	add	r11, sp, #176	; 0xb0
    2e50:	1afffc46 	bne	1f70 <_vfprintf_r+0x394>
    2e54:	e59d60ac 	ldr	r6, [sp, #172]	; 0xac
    2e58:	e28d5d05 	add	r5, sp, #320	; 0x140
    2e5c:	eafffe7b 	b	2850 <_vfprintf_r+0xc74>
    2e60:	e59d8088 	ldr	r8, [sp, #136]	; 0x88
    2e64:	e3580000 	cmp	r8, #0
    2e68:	da000215 	ble	36c4 <_vfprintf_r+0x1ae8>
    2e6c:	e59d4060 	ldr	r4, [sp, #96]	; 0x60
    2e70:	e59d7044 	ldr	r7, [sp, #68]	; 0x44
    2e74:	e59dc04c 	ldr	r12, [sp, #76]	; 0x4c
    2e78:	e1570004 	cmp	r7, r4
    2e7c:	a1a07004 	movge	r7, r4
    2e80:	e59d4044 	ldr	r4, [sp, #68]	; 0x44
    2e84:	e3570000 	cmp	r7, #0
    2e88:	e08cb004 	add	r11, r12, r4
    2e8c:	da000009 	ble	2eb8 <_vfprintf_r+0x12dc>
    2e90:	e59d40a8 	ldr	r4, [sp, #168]	; 0xa8
    2e94:	e2844001 	add	r4, r4, #1
    2e98:	e0866007 	add	r6, r6, r7
    2e9c:	e3540007 	cmp	r4, #7
    2ea0:	e585c000 	str	r12, [r5]
    2ea4:	e5857004 	str	r7, [r5, #4]
    2ea8:	e58d60ac 	str	r6, [sp, #172]	; 0xac
    2eac:	e58d40a8 	str	r4, [sp, #168]	; 0xa8
    2eb0:	d2855008 	addle	r5, r5, #8
    2eb4:	ca0002b5 	bgt	3990 <_vfprintf_r+0x1db4>
    2eb8:	e59dc060 	ldr	r12, [sp, #96]	; 0x60
    2ebc:	e1c77fc7 	bic	r7, r7, r7, asr #31
    2ec0:	e067a00c 	rsb	r10, r7, r12
    2ec4:	e35a0000 	cmp	r10, #0
    2ec8:	da000095 	ble	3124 <_vfprintf_r+0x1548>
    2ecc:	e35a0010 	cmp	r10, #16
    2ed0:	e59d40a8 	ldr	r4, [sp, #168]	; 0xa8
    2ed4:	e59f708c 	ldr	r7, [pc, #140]	; 2f68 <_vfprintf_r+0x138c>
    2ed8:	da000081 	ble	30e4 <_vfprintf_r+0x1508>
    2edc:	e28d80a4 	add	r8, sp, #164	; 0xa4
    2ee0:	e58db038 	str	r11, [sp, #56]	; 0x38
    2ee4:	e3a09010 	mov	r9, #16
    2ee8:	e1a0b00a 	mov	r11, r10
    2eec:	e1a0a008 	mov	r10, r8
    2ef0:	e59d802c 	ldr	r8, [sp, #44]	; 0x2c
    2ef4:	ea000002 	b	2f04 <_vfprintf_r+0x1328>
    2ef8:	e24bb010 	sub	r11, r11, #16
    2efc:	e35b0010 	cmp	r11, #16
    2f00:	da000075 	ble	30dc <_vfprintf_r+0x1500>
    2f04:	e2844001 	add	r4, r4, #1
    2f08:	e3540007 	cmp	r4, #7
    2f0c:	e2866010 	add	r6, r6, #16
    2f10:	e8850280 	stm	r5, {r7, r9}
    2f14:	e58d60ac 	str	r6, [sp, #172]	; 0xac
    2f18:	e58d40a8 	str	r4, [sp, #168]	; 0xa8
    2f1c:	d2855008 	addle	r5, r5, #8
    2f20:	dafffff4 	ble	2ef8 <_vfprintf_r+0x131c>
    2f24:	e1a00008 	mov	r0, r8
    2f28:	e59d101c 	ldr	r1, [sp, #28]
    2f2c:	e1a0200a 	mov	r2, r10
    2f30:	eb001537 	bl	8414 <__sprint_r>
    2f34:	e3500000 	cmp	r0, #0
    2f38:	1afffc0c 	bne	1f70 <_vfprintf_r+0x394>
    2f3c:	e28d40a8 	add	r4, sp, #168	; 0xa8
    2f40:	e8940050 	ldm	r4, {r4, r6}
    2f44:	e28d5d05 	add	r5, sp, #320	; 0x140
    2f48:	eaffffea 	b	2ef8 <_vfprintf_r+0x131c>
    2f4c:	fffffba4 	.word	0xfffffba4
    2f50:	0000bed4 	.word	0x0000bed4
    2f54:	0000bef4 	.word	0x0000bef4
    2f58:	0000bef8 	.word	0x0000bef8
    2f5c:	0000bf04 	.word	0x0000bf04
    2f60:	0000bf18 	.word	0x0000bf18
    2f64:	0000bf34 	.word	0x0000bf34
    2f68:	0000bee4 	.word	0x0000bee4
    2f6c:	0000befc 	.word	0x0000befc
    2f70:	0000bf00 	.word	0x0000bf00
    2f74:	0000bf2c 	.word	0x0000bf2c
    2f78:	66666667 	.word	0x66666667
    2f7c:	e59d9074 	ldr	r9, [sp, #116]	; 0x74
    2f80:	e3a0000f 	mov	r0, #15
    2f84:	e1a0a226 	lsr	r10, r6, #4
    2f88:	e0062000 	and	r2, r6, r0
    2f8c:	e18aae07 	orr	r10, r10, r7, lsl #28
    2f90:	e1a03227 	lsr	r3, r7, #4
    2f94:	e0892002 	add	r2, r9, r2
    2f98:	e1a07003 	mov	r7, r3
    2f9c:	e1a0600a 	mov	r6, r10
    2fa0:	e5d22000 	ldrb	r2, [r2]
    2fa4:	e196b007 	orrs	r11, r6, r7
    2fa8:	e1a0300c 	mov	r3, r12
    2fac:	e5cc2000 	strb	r2, [r12]
    2fb0:	e24cc001 	sub	r12, r12, #1
    2fb4:	1afffff2 	bne	2f84 <_vfprintf_r+0x13a8>
    2fb8:	e59dc054 	ldr	r12, [sp, #84]	; 0x54
    2fbc:	e063c00c 	rsb	r12, r3, r12
    2fc0:	e58d304c 	str	r3, [sp, #76]	; 0x4c
    2fc4:	e58dc038 	str	r12, [sp, #56]	; 0x38
    2fc8:	eafffc7f 	b	21cc <_vfprintf_r+0x5f0>
    2fcc:	e3570000 	cmp	r7, #0
    2fd0:	03560009 	cmpeq	r6, #9
    2fd4:	8a0000e1 	bhi	3360 <_vfprintf_r+0x1784>
    2fd8:	e2866030 	add	r6, r6, #48	; 0x30
    2fdc:	e5cd60d7 	strb	r6, [sp, #215]	; 0xd7
    2fe0:	e59d705c 	ldr	r7, [sp, #92]	; 0x5c
    2fe4:	e59d607c 	ldr	r6, [sp, #124]	; 0x7c
    2fe8:	e58d704c 	str	r7, [sp, #76]	; 0x4c
    2fec:	e58d6038 	str	r6, [sp, #56]	; 0x38
    2ff0:	eafffc75 	b	21cc <_vfprintf_r+0x5f0>
    2ff4:	e59d6054 	ldr	r6, [sp, #84]	; 0x54
    2ff8:	e58d3038 	str	r3, [sp, #56]	; 0x38
    2ffc:	e58d604c 	str	r6, [sp, #76]	; 0x4c
    3000:	eafffc71 	b	21cc <_vfprintf_r+0x5f0>
    3004:	e247a001 	sub	r10, r7, #1
    3008:	e35a0000 	cmp	r10, #0
    300c:	daffff6a 	ble	2dbc <_vfprintf_r+0x11e0>
    3010:	e35a0010 	cmp	r10, #16
    3014:	e51f70b4 	ldr	r7, [pc, #-180]	; 2f68 <_vfprintf_r+0x138c>
    3018:	da0000bf 	ble	331c <_vfprintf_r+0x1740>
    301c:	e28d80a4 	add	r8, sp, #164	; 0xa4
    3020:	e1a03008 	mov	r3, r8
    3024:	e3a09010 	mov	r9, #16
    3028:	e1a08007 	mov	r8, r7
    302c:	e59db02c 	ldr	r11, [sp, #44]	; 0x2c
    3030:	e1a07003 	mov	r7, r3
    3034:	ea000002 	b	3044 <_vfprintf_r+0x1468>
    3038:	e24aa010 	sub	r10, r10, #16
    303c:	e35a0010 	cmp	r10, #16
    3040:	da0000b4 	ble	3318 <_vfprintf_r+0x173c>
    3044:	e2844001 	add	r4, r4, #1
    3048:	e3540007 	cmp	r4, #7
    304c:	e2866010 	add	r6, r6, #16
    3050:	e8850300 	stm	r5, {r8, r9}
    3054:	e58d60ac 	str	r6, [sp, #172]	; 0xac
    3058:	e58d40a8 	str	r4, [sp, #168]	; 0xa8
    305c:	d2855008 	addle	r5, r5, #8
    3060:	dafffff4 	ble	3038 <_vfprintf_r+0x145c>
    3064:	e1a0000b 	mov	r0, r11
    3068:	e59d101c 	ldr	r1, [sp, #28]
    306c:	e1a02007 	mov	r2, r7
    3070:	eb0014e7 	bl	8414 <__sprint_r>
    3074:	e3500000 	cmp	r0, #0
    3078:	1afffbbc 	bne	1f70 <_vfprintf_r+0x394>
    307c:	e28d40a8 	add	r4, sp, #168	; 0xa8
    3080:	e8940050 	ldm	r4, {r4, r6}
    3084:	e28d5d05 	add	r5, sp, #320	; 0x140
    3088:	eaffffea 	b	3038 <_vfprintf_r+0x145c>
    308c:	e1960007 	orrs	r0, r6, r7
    3090:	159db018 	ldrne	r11, [sp, #24]
    3094:	13a03030 	movne	r3, #48	; 0x30
    3098:	138bb002 	orrne	r11, r11, #2
    309c:	15cd3084 	strbne	r3, [sp, #132]	; 0x84
    30a0:	15cd8085 	strbne	r8, [sp, #133]	; 0x85
    30a4:	158db018 	strne	r11, [sp, #24]
    30a8:	13a02001 	movne	r2, #1
    30ac:	03a02000 	moveq	r2, #0
    30b0:	e3a03002 	mov	r3, #2
    30b4:	eafffcdd 	b	2430 <_vfprintf_r+0x854>
    30b8:	e1a07008 	mov	r7, r8
    30bc:	e2844001 	add	r4, r4, #1
    30c0:	e086600a 	add	r6, r6, r10
    30c4:	e3540007 	cmp	r4, #7
    30c8:	e8850480 	stm	r5, {r7, r10}
    30cc:	e58d60ac 	str	r6, [sp, #172]	; 0xac
    30d0:	e58d40a8 	str	r4, [sp, #168]	; 0xa8
    30d4:	dafffe34 	ble	29ac <_vfprintf_r+0xdd0>
    30d8:	eaffff40 	b	2de0 <_vfprintf_r+0x1204>
    30dc:	e1a0a00b 	mov	r10, r11
    30e0:	e59db038 	ldr	r11, [sp, #56]	; 0x38
    30e4:	e2844001 	add	r4, r4, #1
    30e8:	e086600a 	add	r6, r6, r10
    30ec:	e3540007 	cmp	r4, #7
    30f0:	e8850480 	stm	r5, {r7, r10}
    30f4:	e58d60ac 	str	r6, [sp, #172]	; 0xac
    30f8:	e58d40a8 	str	r4, [sp, #168]	; 0xa8
    30fc:	d2855008 	addle	r5, r5, #8
    3100:	da000007 	ble	3124 <_vfprintf_r+0x1548>
    3104:	e59d002c 	ldr	r0, [sp, #44]	; 0x2c
    3108:	e59d101c 	ldr	r1, [sp, #28]
    310c:	e28d20a4 	add	r2, sp, #164	; 0xa4
    3110:	eb0014bf 	bl	8414 <__sprint_r>
    3114:	e3500000 	cmp	r0, #0
    3118:	1afffb94 	bne	1f70 <_vfprintf_r+0x394>
    311c:	e59d60ac 	ldr	r6, [sp, #172]	; 0xac
    3120:	e28d5d05 	add	r5, sp, #320	; 0x140
    3124:	e59d3088 	ldr	r3, [sp, #136]	; 0x88
    3128:	e59d4044 	ldr	r4, [sp, #68]	; 0x44
    312c:	e59d704c 	ldr	r7, [sp, #76]	; 0x4c
    3130:	e59dc060 	ldr	r12, [sp, #96]	; 0x60
    3134:	e1530004 	cmp	r3, r4
    3138:	e087800c 	add	r8, r7, r12
    313c:	ba000038 	blt	3224 <_vfprintf_r+0x1648>
    3140:	e59d4018 	ldr	r4, [sp, #24]
    3144:	e3140001 	tst	r4, #1
    3148:	1a000035 	bne	3224 <_vfprintf_r+0x1648>
    314c:	e59d4044 	ldr	r4, [sp, #68]	; 0x44
    3150:	e068700b 	rsb	r7, r8, r11
    3154:	e0633004 	rsb	r3, r3, r4
    3158:	e1530007 	cmp	r3, r7
    315c:	b1a07003 	movlt	r7, r3
    3160:	a1a07007 	movge	r7, r7
    3164:	e3570000 	cmp	r7, #0
    3168:	da000009 	ble	3194 <_vfprintf_r+0x15b8>
    316c:	e59d40a8 	ldr	r4, [sp, #168]	; 0xa8
    3170:	e2844001 	add	r4, r4, #1
    3174:	e0866007 	add	r6, r6, r7
    3178:	e3540007 	cmp	r4, #7
    317c:	e5858000 	str	r8, [r5]
    3180:	e5857004 	str	r7, [r5, #4]
    3184:	e58d60ac 	str	r6, [sp, #172]	; 0xac
    3188:	e58d40a8 	str	r4, [sp, #168]	; 0xa8
    318c:	d2855008 	addle	r5, r5, #8
    3190:	ca000208 	bgt	39b8 <_vfprintf_r+0x1ddc>
    3194:	e1c77fc7 	bic	r7, r7, r7, asr #31
    3198:	e067a003 	rsb	r10, r7, r3
    319c:	e35a0000 	cmp	r10, #0
    31a0:	dafffe02 	ble	29b0 <_vfprintf_r+0xdd4>
    31a4:	e35a0010 	cmp	r10, #16
    31a8:	e59d40a8 	ldr	r4, [sp, #168]	; 0xa8
    31ac:	e51f724c 	ldr	r7, [pc, #-588]	; 2f68 <_vfprintf_r+0x138c>
    31b0:	daffffc1 	ble	30bc <_vfprintf_r+0x14e0>
    31b4:	e28d80a4 	add	r8, sp, #164	; 0xa4
    31b8:	e1a03008 	mov	r3, r8
    31bc:	e3a09010 	mov	r9, #16
    31c0:	e1a08007 	mov	r8, r7
    31c4:	e59db02c 	ldr	r11, [sp, #44]	; 0x2c
    31c8:	e1a07003 	mov	r7, r3
    31cc:	ea000002 	b	31dc <_vfprintf_r+0x1600>
    31d0:	e24aa010 	sub	r10, r10, #16
    31d4:	e35a0010 	cmp	r10, #16
    31d8:	daffffb6 	ble	30b8 <_vfprintf_r+0x14dc>
    31dc:	e2844001 	add	r4, r4, #1
    31e0:	e3540007 	cmp	r4, #7
    31e4:	e2866010 	add	r6, r6, #16
    31e8:	e8850300 	stm	r5, {r8, r9}
    31ec:	e58d60ac 	str	r6, [sp, #172]	; 0xac
    31f0:	e58d40a8 	str	r4, [sp, #168]	; 0xa8
    31f4:	d2855008 	addle	r5, r5, #8
    31f8:	dafffff4 	ble	31d0 <_vfprintf_r+0x15f4>
    31fc:	e1a0000b 	mov	r0, r11
    3200:	e59d101c 	ldr	r1, [sp, #28]
    3204:	e1a02007 	mov	r2, r7
    3208:	eb001481 	bl	8414 <__sprint_r>
    320c:	e3500000 	cmp	r0, #0
    3210:	1afffb56 	bne	1f70 <_vfprintf_r+0x394>
    3214:	e28d40a8 	add	r4, sp, #168	; 0xa8
    3218:	e8940050 	ldm	r4, {r4, r6}
    321c:	e28d5d05 	add	r5, sp, #320	; 0x140
    3220:	eaffffea 	b	31d0 <_vfprintf_r+0x15f4>
    3224:	e59d40a8 	ldr	r4, [sp, #168]	; 0xa8
    3228:	e59d7064 	ldr	r7, [sp, #100]	; 0x64
    322c:	e2844001 	add	r4, r4, #1
    3230:	e59dc058 	ldr	r12, [sp, #88]	; 0x58
    3234:	e0866007 	add	r6, r6, r7
    3238:	e3540007 	cmp	r4, #7
    323c:	e585c000 	str	r12, [r5]
    3240:	e5857004 	str	r7, [r5, #4]
    3244:	e58d60ac 	str	r6, [sp, #172]	; 0xac
    3248:	e58d40a8 	str	r4, [sp, #168]	; 0xa8
    324c:	d2855008 	addle	r5, r5, #8
    3250:	daffffbd 	ble	314c <_vfprintf_r+0x1570>
    3254:	e59d002c 	ldr	r0, [sp, #44]	; 0x2c
    3258:	e59d101c 	ldr	r1, [sp, #28]
    325c:	e28d20a4 	add	r2, sp, #164	; 0xa4
    3260:	eb00146b 	bl	8414 <__sprint_r>
    3264:	e3500000 	cmp	r0, #0
    3268:	1afffb40 	bne	1f70 <_vfprintf_r+0x394>
    326c:	e59d3088 	ldr	r3, [sp, #136]	; 0x88
    3270:	e59d60ac 	ldr	r6, [sp, #172]	; 0xac
    3274:	e28d5d05 	add	r5, sp, #320	; 0x140
    3278:	eaffffb3 	b	314c <_vfprintf_r+0x1570>
    327c:	e59d7018 	ldr	r7, [sp, #24]
    3280:	e3170001 	tst	r7, #1
    3284:	1afffea5 	bne	2d20 <_vfprintf_r+0x1144>
    3288:	e59d704c 	ldr	r7, [sp, #76]	; 0x4c
    328c:	e3a03001 	mov	r3, #1
    3290:	e3540007 	cmp	r4, #7
    3294:	e5857000 	str	r7, [r5]
    3298:	e5853004 	str	r3, [r5, #4]
    329c:	e58d60ac 	str	r6, [sp, #172]	; 0xac
    32a0:	e58d40a8 	str	r4, [sp, #168]	; 0xa8
    32a4:	dafffec3 	ble	2db8 <_vfprintf_r+0x11dc>
    32a8:	e59d002c 	ldr	r0, [sp, #44]	; 0x2c
    32ac:	e59d101c 	ldr	r1, [sp, #28]
    32b0:	e28d20a4 	add	r2, sp, #164	; 0xa4
    32b4:	eb001456 	bl	8414 <__sprint_r>
    32b8:	e3500000 	cmp	r0, #0
    32bc:	e28db0b0 	add	r11, sp, #176	; 0xb0
    32c0:	0a000022 	beq	3350 <_vfprintf_r+0x1774>
    32c4:	eafffb29 	b	1f70 <_vfprintf_r+0x394>
    32c8:	e59d002c 	ldr	r0, [sp, #44]	; 0x2c
    32cc:	e59d101c 	ldr	r1, [sp, #28]
    32d0:	e28d20a4 	add	r2, sp, #164	; 0xa4
    32d4:	eb00144e 	bl	8414 <__sprint_r>
    32d8:	e3500000 	cmp	r0, #0
    32dc:	1afffb23 	bne	1f70 <_vfprintf_r+0x394>
    32e0:	e28d40a8 	add	r4, sp, #168	; 0xa8
    32e4:	e8940050 	ldm	r4, {r4, r6}
    32e8:	e28d5d05 	add	r5, sp, #320	; 0x140
    32ec:	eafffe94 	b	2d44 <_vfprintf_r+0x1168>
    32f0:	e59d002c 	ldr	r0, [sp, #44]	; 0x2c
    32f4:	e59d101c 	ldr	r1, [sp, #28]
    32f8:	e28d20a4 	add	r2, sp, #164	; 0xa4
    32fc:	eb001444 	bl	8414 <__sprint_r>
    3300:	e3500000 	cmp	r0, #0
    3304:	1afffb19 	bne	1f70 <_vfprintf_r+0x394>
    3308:	e28d40a8 	add	r4, sp, #168	; 0xa8
    330c:	e8940050 	ldm	r4, {r4, r6}
    3310:	e28d5d05 	add	r5, sp, #320	; 0x140
    3314:	eafffe95 	b	2d70 <_vfprintf_r+0x1194>
    3318:	e1a07008 	mov	r7, r8
    331c:	e2844001 	add	r4, r4, #1
    3320:	e086600a 	add	r6, r6, r10
    3324:	e3540007 	cmp	r4, #7
    3328:	e8850480 	stm	r5, {r7, r10}
    332c:	e58d60ac 	str	r6, [sp, #172]	; 0xac
    3330:	e58d40a8 	str	r4, [sp, #168]	; 0xa8
    3334:	dafffe9f 	ble	2db8 <_vfprintf_r+0x11dc>
    3338:	e59d002c 	ldr	r0, [sp, #44]	; 0x2c
    333c:	e59d101c 	ldr	r1, [sp, #28]
    3340:	e28d20a4 	add	r2, sp, #164	; 0xa4
    3344:	eb001432 	bl	8414 <__sprint_r>
    3348:	e3500000 	cmp	r0, #0
    334c:	1afffb07 	bne	1f70 <_vfprintf_r+0x394>
    3350:	e28d40a8 	add	r4, sp, #168	; 0xa8
    3354:	e28d5d05 	add	r5, sp, #320	; 0x140
    3358:	e8940050 	ldm	r4, {r4, r6}
    335c:	eafffe96 	b	2dbc <_vfprintf_r+0x11e0>
    3360:	e59da05c 	ldr	r10, [sp, #92]	; 0x5c
    3364:	e1a00006 	mov	r0, r6
    3368:	e1a01007 	mov	r1, r7
    336c:	e3a0200a 	mov	r2, #10
    3370:	e3a03000 	mov	r3, #0
    3374:	eb001e65 	bl	ad10 <__aeabi_uldivmod>
    3378:	e2822030 	add	r2, r2, #48	; 0x30
    337c:	e5ca2000 	strb	r2, [r10]
    3380:	e1a00006 	mov	r0, r6
    3384:	e1a01007 	mov	r1, r7
    3388:	e3a0200a 	mov	r2, #10
    338c:	e3a03000 	mov	r3, #0
    3390:	eb001e5e 	bl	ad10 <__aeabi_uldivmod>
    3394:	e1a06000 	mov	r6, r0
    3398:	e1a07001 	mov	r7, r1
    339c:	e196b007 	orrs	r11, r6, r7
    33a0:	e1a0900a 	mov	r9, r10
    33a4:	e24aa001 	sub	r10, r10, #1
    33a8:	1affffed 	bne	3364 <_vfprintf_r+0x1788>
    33ac:	e59dc054 	ldr	r12, [sp, #84]	; 0x54
    33b0:	e069c00c 	rsb	r12, r9, r12
    33b4:	e58d904c 	str	r9, [sp, #76]	; 0x4c
    33b8:	e58dc038 	str	r12, [sp, #56]	; 0x38
    33bc:	eafffb82 	b	21cc <_vfprintf_r+0x5f0>
    33c0:	e3520030 	cmp	r2, #48	; 0x30
    33c4:	13a02030 	movne	r2, #48	; 0x30
    33c8:	059db054 	ldreq	r11, [sp, #84]	; 0x54
    33cc:	15432001 	strbne	r2, [r3, #-1]
    33d0:	059dc04c 	ldreq	r12, [sp, #76]	; 0x4c
    33d4:	159d3054 	ldrne	r3, [sp, #84]	; 0x54
    33d8:	006cb00b 	rsbeq	r11, r12, r11
    33dc:	106c3003 	rsbne	r3, r12, r3
    33e0:	058db038 	streq	r11, [sp, #56]	; 0x38
    33e4:	158dc04c 	strne	r12, [sp, #76]	; 0x4c
    33e8:	158d3038 	strne	r3, [sp, #56]	; 0x38
    33ec:	eafffb76 	b	21cc <_vfprintf_r+0x5f0>
    33f0:	e2766000 	rsbs	r6, r6, #0
    33f4:	e2e77000 	rsc	r7, r7, #0
    33f8:	e3a0302d 	mov	r3, #45	; 0x2d
    33fc:	e1962007 	orrs	r2, r6, r7
    3400:	e5cd3083 	strb	r3, [sp, #131]	; 0x83
    3404:	03a02000 	moveq	r2, #0
    3408:	13a02001 	movne	r2, #1
    340c:	e3a03001 	mov	r3, #1
    3410:	eafffb4b 	b	2144 <_vfprintf_r+0x568>
    3414:	e5d38000 	ldrb	r8, [r3]
    3418:	eafffa52 	b	1d68 <_vfprintf_r+0x18c>
    341c:	eb0012f6 	bl	7ffc <__fpclassifyd>
    3420:	e3500000 	cmp	r0, #0
    3424:	0a000111 	beq	3870 <_vfprintf_r+0x1c94>
    3428:	e3740001 	cmn	r4, #1
    342c:	e3c89020 	bic	r9, r8, #32
    3430:	03a04006 	moveq	r4, #6
    3434:	0a000003 	beq	3448 <_vfprintf_r+0x186c>
    3438:	e3590047 	cmp	r9, #71	; 0x47
    343c:	1a000001 	bne	3448 <_vfprintf_r+0x186c>
    3440:	e3540000 	cmp	r4, #0
    3444:	03a04001 	moveq	r4, #1
    3448:	e59d6018 	ldr	r6, [sp, #24]
    344c:	e3570000 	cmp	r7, #0
    3450:	e3866c01 	orr	r6, r6, #256	; 0x100
    3454:	b2877102 	addlt	r7, r7, #-2147483648	; 0x80000000
    3458:	b3a0b02d 	movlt	r11, #45	; 0x2d
    345c:	a3a0b000 	movge	r11, #0
    3460:	e2593046 	subs	r3, r9, #70	; 0x46
    3464:	e58d6040 	str	r6, [sp, #64]	; 0x40
    3468:	e2736000 	rsbs	r6, r3, #0
    346c:	e0b66003 	adcs	r6, r6, r3
    3470:	e3560000 	cmp	r6, #0
    3474:	1a00016a 	bne	3a24 <_vfprintf_r+0x1e48>
    3478:	e3590045 	cmp	r9, #69	; 0x45
    347c:	1a0001c4 	bne	3b94 <_vfprintf_r+0x1fb8>
    3480:	e28d3090 	add	r3, sp, #144	; 0x90
    3484:	e58da020 	str	r10, [sp, #32]
    3488:	e2846001 	add	r6, r4, #1
    348c:	e28d1088 	add	r1, sp, #136	; 0x88
    3490:	e28d208c 	add	r2, sp, #140	; 0x8c
    3494:	e58d7024 	str	r7, [sp, #36]	; 0x24
    3498:	e3a00002 	mov	r0, #2
    349c:	e88d0041 	stm	sp, {r0, r6}
    34a0:	e58d200c 	str	r2, [sp, #12]
    34a4:	e58d3010 	str	r3, [sp, #16]
    34a8:	e58d1008 	str	r1, [sp, #8]
    34ac:	e59d002c 	ldr	r0, [sp, #44]	; 0x2c
    34b0:	e28d3020 	add	r3, sp, #32
    34b4:	e893000c 	ldm	r3, {r2, r3}
    34b8:	eb000392 	bl	4308 <_dtoa_r>
    34bc:	e58d004c 	str	r0, [sp, #76]	; 0x4c
    34c0:	e0806006 	add	r6, r0, r6
    34c4:	e1a0000a 	mov	r0, r10
    34c8:	e1a01007 	mov	r1, r7
    34cc:	e3a02000 	mov	r2, #0
    34d0:	e3a03000 	mov	r3, #0
    34d4:	ebfff78b 	bl	1308 <__aeabi_dcmpeq>
    34d8:	e3500000 	cmp	r0, #0
    34dc:	1a000008 	bne	3504 <_vfprintf_r+0x1928>
    34e0:	e59d3090 	ldr	r3, [sp, #144]	; 0x90
    34e4:	e1560003 	cmp	r6, r3
    34e8:	91a06003 	movls	r6, r3
    34ec:	9a000004 	bls	3504 <_vfprintf_r+0x1928>
    34f0:	e3a02030 	mov	r2, #48	; 0x30
    34f4:	e4c32001 	strb	r2, [r3], #1
    34f8:	e1530006 	cmp	r3, r6
    34fc:	e58d3090 	str	r3, [sp, #144]	; 0x90
    3500:	1afffffb 	bne	34f4 <_vfprintf_r+0x1918>
    3504:	e59d704c 	ldr	r7, [sp, #76]	; 0x4c
    3508:	e3590047 	cmp	r9, #71	; 0x47
    350c:	e0676006 	rsb	r6, r7, r6
    3510:	e58d6044 	str	r6, [sp, #68]	; 0x44
    3514:	0a000163 	beq	3aa8 <_vfprintf_r+0x1ecc>
    3518:	e3580065 	cmp	r8, #101	; 0x65
    351c:	da000201 	ble	3d28 <_vfprintf_r+0x214c>
    3520:	e3580066 	cmp	r8, #102	; 0x66
    3524:	e59d3088 	ldr	r3, [sp, #136]	; 0x88
    3528:	0a0001a5 	beq	3bc4 <_vfprintf_r+0x1fe8>
    352c:	e59dc044 	ldr	r12, [sp, #68]	; 0x44
    3530:	e153000c 	cmp	r3, r12
    3534:	ba000198 	blt	3b9c <_vfprintf_r+0x1fc0>
    3538:	e59d4018 	ldr	r4, [sp, #24]
    353c:	e3140001 	tst	r4, #1
    3540:	12837001 	addne	r7, r3, #1
    3544:	01c36fc3 	biceq	r6, r3, r3, asr #31
    3548:	11c7cfc7 	bicne	r12, r7, r7, asr #31
    354c:	058d6020 	streq	r6, [sp, #32]
    3550:	058d3038 	streq	r3, [sp, #56]	; 0x38
    3554:	158d7038 	strne	r7, [sp, #56]	; 0x38
    3558:	158dc020 	strne	r12, [sp, #32]
    355c:	e3a08067 	mov	r8, #103	; 0x67
    3560:	e58d3060 	str	r3, [sp, #96]	; 0x60
    3564:	e35b0000 	cmp	r11, #0
    3568:	0a000128 	beq	3a10 <_vfprintf_r+0x1e34>
    356c:	e59db040 	ldr	r11, [sp, #64]	; 0x40
    3570:	e3a0302d 	mov	r3, #45	; 0x2d
    3574:	e3a0c000 	mov	r12, #0
    3578:	e5cd3083 	strb	r3, [sp, #131]	; 0x83
    357c:	e58db018 	str	r11, [sp, #24]
    3580:	e58dc040 	str	r12, [sp, #64]	; 0x40
    3584:	eafffb1a 	b	21f4 <_vfprintf_r+0x618>
    3588:	e59dc03c 	ldr	r12, [sp, #60]	; 0x3c
    358c:	e28c1007 	add	r1, r12, #7
    3590:	e3c11007 	bic	r1, r1, #7
    3594:	e591a000 	ldr	r10, [r1]
    3598:	e5917004 	ldr	r7, [r1, #4]
    359c:	e2811008 	add	r1, r1, #8
    35a0:	e58d103c 	str	r1, [sp, #60]	; 0x3c
    35a4:	e1a0000a 	mov	r0, r10
    35a8:	e1a01007 	mov	r1, r7
    35ac:	e58d0068 	str	r0, [sp, #104]	; 0x68
    35b0:	e58d106c 	str	r1, [sp, #108]	; 0x6c
    35b4:	eafffb6a 	b	2364 <_vfprintf_r+0x788>
    35b8:	e59d7018 	ldr	r7, [sp, #24]
    35bc:	e3170010 	tst	r7, #16
    35c0:	1a000009 	bne	35ec <_vfprintf_r+0x1a10>
    35c4:	e59d4018 	ldr	r4, [sp, #24]
    35c8:	e3140040 	tst	r4, #64	; 0x40
    35cc:	0a000006 	beq	35ec <_vfprintf_r+0x1a10>
    35d0:	e59d603c 	ldr	r6, [sp, #60]	; 0x3c
    35d4:	e59d7034 	ldr	r7, [sp, #52]	; 0x34
    35d8:	e5963000 	ldr	r3, [r6]
    35dc:	e2866004 	add	r6, r6, #4
    35e0:	e58d603c 	str	r6, [sp, #60]	; 0x3c
    35e4:	e1c370b0 	strh	r7, [r3]
    35e8:	eafff9b3 	b	1cbc <_vfprintf_r+0xe0>
    35ec:	e59db03c 	ldr	r11, [sp, #60]	; 0x3c
    35f0:	e59dc034 	ldr	r12, [sp, #52]	; 0x34
    35f4:	e59b3000 	ldr	r3, [r11]
    35f8:	e28bb004 	add	r11, r11, #4
    35fc:	e58db03c 	str	r11, [sp, #60]	; 0x3c
    3600:	e583c000 	str	r12, [r3]
    3604:	eafff9ac 	b	1cbc <_vfprintf_r+0xe0>
    3608:	e59dc018 	ldr	r12, [sp, #24]
    360c:	e31c0040 	tst	r12, #64	; 0x40
    3610:	0a00008d 	beq	384c <_vfprintf_r+0x1c70>
    3614:	e59d603c 	ldr	r6, [sp, #60]	; 0x3c
    3618:	e1d630f0 	ldrsh	r3, [r6]
    361c:	eafffc4a 	b	274c <_vfprintf_r+0xb70>
    3620:	e59dc018 	ldr	r12, [sp, #24]
    3624:	e31c0040 	tst	r12, #64	; 0x40
    3628:	0a000080 	beq	3830 <_vfprintf_r+0x1c54>
    362c:	e59d603c 	ldr	r6, [sp, #60]	; 0x3c
    3630:	e59db03c 	ldr	r11, [sp, #60]	; 0x3c
    3634:	e1d630b0 	ldrh	r3, [r6]
    3638:	e28bb004 	add	r11, r11, #4
    363c:	e1a06003 	mov	r6, r3
    3640:	e3a07000 	mov	r7, #0
    3644:	e58db03c 	str	r11, [sp, #60]	; 0x3c
    3648:	eafffb99 	b	24b4 <_vfprintf_r+0x8d8>
    364c:	e59dc018 	ldr	r12, [sp, #24]
    3650:	e31c0040 	tst	r12, #64	; 0x40
    3654:	0a00006b 	beq	3808 <_vfprintf_r+0x1c2c>
    3658:	e59d603c 	ldr	r6, [sp, #60]	; 0x3c
    365c:	e1d620b0 	ldrh	r2, [r6]
    3660:	eafffc17 	b	26c4 <_vfprintf_r+0xae8>
    3664:	e59dc018 	ldr	r12, [sp, #24]
    3668:	e21c3040 	ands	r3, r12, #64	; 0x40
    366c:	0a00005c 	beq	37e4 <_vfprintf_r+0x1c08>
    3670:	e59d603c 	ldr	r6, [sp, #60]	; 0x3c
    3674:	e59db03c 	ldr	r11, [sp, #60]	; 0x3c
    3678:	e1d620b0 	ldrh	r2, [r6]
    367c:	e3a07000 	mov	r7, #0
    3680:	e1a06002 	mov	r6, r2
    3684:	e28bb004 	add	r11, r11, #4
    3688:	e0522007 	subs	r2, r2, r7
    368c:	13a02001 	movne	r2, #1
    3690:	e58db03c 	str	r11, [sp, #60]	; 0x3c
    3694:	e1a03001 	mov	r3, r1
    3698:	eafffb64 	b	2430 <_vfprintf_r+0x854>
    369c:	e59d002c 	ldr	r0, [sp, #44]	; 0x2c
    36a0:	e59d101c 	ldr	r1, [sp, #28]
    36a4:	e28d20a4 	add	r2, sp, #164	; 0xa4
    36a8:	eb001359 	bl	8414 <__sprint_r>
    36ac:	e3500000 	cmp	r0, #0
    36b0:	e28d40b0 	add	r4, sp, #176	; 0xb0
    36b4:	1afffa2d 	bne	1f70 <_vfprintf_r+0x394>
    36b8:	e59d60ac 	ldr	r6, [sp, #172]	; 0xac
    36bc:	e28d5d05 	add	r5, sp, #320	; 0x140
    36c0:	eafffd16 	b	2b20 <_vfprintf_r+0xf44>
    36c4:	e59d40a8 	ldr	r4, [sp, #168]	; 0xa8
    36c8:	e51f376c 	ldr	r3, [pc, #-1900]	; 2f64 <_vfprintf_r+0x1388>
    36cc:	e2844001 	add	r4, r4, #1
    36d0:	e5853000 	str	r3, [r5]
    36d4:	e2866001 	add	r6, r6, #1
    36d8:	e3540007 	cmp	r4, #7
    36dc:	e3a03001 	mov	r3, #1
    36e0:	e5853004 	str	r3, [r5, #4]
    36e4:	e58d60ac 	str	r6, [sp, #172]	; 0xac
    36e8:	e58d40a8 	str	r4, [sp, #168]	; 0xa8
    36ec:	d2855008 	addle	r5, r5, #8
    36f0:	ca000074 	bgt	38c8 <_vfprintf_r+0x1cec>
    36f4:	e3580000 	cmp	r8, #0
    36f8:	0a00006b 	beq	38ac <_vfprintf_r+0x1cd0>
    36fc:	e59d40a8 	ldr	r4, [sp, #168]	; 0xa8
    3700:	e59dc064 	ldr	r12, [sp, #100]	; 0x64
    3704:	e2844001 	add	r4, r4, #1
    3708:	e59d7058 	ldr	r7, [sp, #88]	; 0x58
    370c:	e086600c 	add	r6, r6, r12
    3710:	e3540007 	cmp	r4, #7
    3714:	e8851080 	stm	r5, {r7, r12}
    3718:	e58d60ac 	str	r6, [sp, #172]	; 0xac
    371c:	e58d40a8 	str	r4, [sp, #168]	; 0xa8
    3720:	d2855008 	addle	r5, r5, #8
    3724:	ca00010e 	bgt	3b64 <_vfprintf_r+0x1f88>
    3728:	e2688000 	rsb	r8, r8, #0
    372c:	e3580000 	cmp	r8, #0
    3730:	da00008a 	ble	3960 <_vfprintf_r+0x1d84>
    3734:	e3580010 	cmp	r8, #16
    3738:	e51f77d8 	ldr	r7, [pc, #-2008]	; 2f68 <_vfprintf_r+0x138c>
    373c:	da000076 	ble	391c <_vfprintf_r+0x1d40>
    3740:	e3a0a010 	mov	r10, #16
    3744:	e28d90a4 	add	r9, sp, #164	; 0xa4
    3748:	e59db02c 	ldr	r11, [sp, #44]	; 0x2c
    374c:	ea000002 	b	375c <_vfprintf_r+0x1b80>
    3750:	e2488010 	sub	r8, r8, #16
    3754:	e3580010 	cmp	r8, #16
    3758:	da00006f 	ble	391c <_vfprintf_r+0x1d40>
    375c:	e2844001 	add	r4, r4, #1
    3760:	e3540007 	cmp	r4, #7
    3764:	e2866010 	add	r6, r6, #16
    3768:	e8850480 	stm	r5, {r7, r10}
    376c:	e58d60ac 	str	r6, [sp, #172]	; 0xac
    3770:	e58d40a8 	str	r4, [sp, #168]	; 0xa8
    3774:	d2855008 	addle	r5, r5, #8
    3778:	dafffff4 	ble	3750 <_vfprintf_r+0x1b74>
    377c:	e1a0000b 	mov	r0, r11
    3780:	e59d101c 	ldr	r1, [sp, #28]
    3784:	e1a02009 	mov	r2, r9
    3788:	eb001321 	bl	8414 <__sprint_r>
    378c:	e3500000 	cmp	r0, #0
    3790:	1afff9f6 	bne	1f70 <_vfprintf_r+0x394>
    3794:	e28d40a8 	add	r4, sp, #168	; 0xa8
    3798:	e8940050 	ldm	r4, {r4, r6}
    379c:	e28d5d05 	add	r5, sp, #320	; 0x140
    37a0:	eaffffea 	b	3750 <_vfprintf_r+0x1b74>
    37a4:	e59d30ac 	ldr	r3, [sp, #172]	; 0xac
    37a8:	e3530000 	cmp	r3, #0
    37ac:	e59d901c 	ldr	r9, [sp, #28]
    37b0:	0afff9ef 	beq	1f74 <_vfprintf_r+0x398>
    37b4:	e59d002c 	ldr	r0, [sp, #44]	; 0x2c
    37b8:	e1a01009 	mov	r1, r9
    37bc:	e28d20a4 	add	r2, sp, #164	; 0xa4
    37c0:	eb001313 	bl	8414 <__sprint_r>
    37c4:	eafff9ea 	b	1f74 <_vfprintf_r+0x398>
    37c8:	e59db038 	ldr	r11, [sp, #56]	; 0x38
    37cc:	e1cbbfcb 	bic	r11, r11, r11, asr #31
    37d0:	e58db020 	str	r11, [sp, #32]
    37d4:	e5dd3083 	ldrb	r3, [sp, #131]	; 0x83
    37d8:	e58d703c 	str	r7, [sp, #60]	; 0x3c
    37dc:	e58d6060 	str	r6, [sp, #96]	; 0x60
    37e0:	eafffa81 	b	21ec <_vfprintf_r+0x610>
    37e4:	e59dc03c 	ldr	r12, [sp, #60]	; 0x3c
    37e8:	e59c2000 	ldr	r2, [r12]
    37ec:	e3a07000 	mov	r7, #0
    37f0:	e1a06002 	mov	r6, r2
    37f4:	e28cc004 	add	r12, r12, #4
    37f8:	e0522007 	subs	r2, r2, r7
    37fc:	13a02001 	movne	r2, #1
    3800:	e58dc03c 	str	r12, [sp, #60]	; 0x3c
    3804:	eafffb09 	b	2430 <_vfprintf_r+0x854>
    3808:	e59dc03c 	ldr	r12, [sp, #60]	; 0x3c
    380c:	e59c2000 	ldr	r2, [r12]
    3810:	e3a07000 	mov	r7, #0
    3814:	e1a06002 	mov	r6, r2
    3818:	e28cc004 	add	r12, r12, #4
    381c:	e0522007 	subs	r2, r2, r7
    3820:	13a02001 	movne	r2, #1
    3824:	e58dc03c 	str	r12, [sp, #60]	; 0x3c
    3828:	e3a03001 	mov	r3, #1
    382c:	eafffaff 	b	2430 <_vfprintf_r+0x854>
    3830:	e59dc03c 	ldr	r12, [sp, #60]	; 0x3c
    3834:	e59c3000 	ldr	r3, [r12]
    3838:	e28cc004 	add	r12, r12, #4
    383c:	e1a06003 	mov	r6, r3
    3840:	e3a07000 	mov	r7, #0
    3844:	e58dc03c 	str	r12, [sp, #60]	; 0x3c
    3848:	eafffb19 	b	24b4 <_vfprintf_r+0x8d8>
    384c:	e59dc03c 	ldr	r12, [sp, #60]	; 0x3c
    3850:	e59c3000 	ldr	r3, [r12]
    3854:	e28cc004 	add	r12, r12, #4
    3858:	e1a07fc3 	asr	r7, r3, #31
    385c:	e1a06003 	mov	r6, r3
    3860:	e1a02003 	mov	r2, r3
    3864:	e58dc03c 	str	r12, [sp, #60]	; 0x3c
    3868:	e1a03007 	mov	r3, r7
    386c:	eafffa2d 	b	2128 <_vfprintf_r+0x54c>
    3870:	e51f390c 	ldr	r3, [pc, #-2316]	; 2f6c <_vfprintf_r+0x1390>
    3874:	e59dc018 	ldr	r12, [sp, #24]
    3878:	e51f2910 	ldr	r2, [pc, #-2320]	; 2f70 <_vfprintf_r+0x1394>
    387c:	e3580047 	cmp	r8, #71	; 0x47
    3880:	e3a0b003 	mov	r11, #3
    3884:	d1a02003 	movle	r2, r3
    3888:	e3ccc080 	bic	r12, r12, #128	; 0x80
    388c:	e58db020 	str	r11, [sp, #32]
    3890:	e58d0040 	str	r0, [sp, #64]	; 0x40
    3894:	e58d204c 	str	r2, [sp, #76]	; 0x4c
    3898:	e58dc018 	str	r12, [sp, #24]
    389c:	e5dd3083 	ldrb	r3, [sp, #131]	; 0x83
    38a0:	e58db038 	str	r11, [sp, #56]	; 0x38
    38a4:	e58d0060 	str	r0, [sp, #96]	; 0x60
    38a8:	eafffa4f 	b	21ec <_vfprintf_r+0x610>
    38ac:	e59d7044 	ldr	r7, [sp, #68]	; 0x44
    38b0:	e3570000 	cmp	r7, #0
    38b4:	1affff90 	bne	36fc <_vfprintf_r+0x1b20>
    38b8:	e59db018 	ldr	r11, [sp, #24]
    38bc:	e31b0001 	tst	r11, #1
    38c0:	0afffc3a 	beq	29b0 <_vfprintf_r+0xdd4>
    38c4:	eaffff8c 	b	36fc <_vfprintf_r+0x1b20>
    38c8:	e59d002c 	ldr	r0, [sp, #44]	; 0x2c
    38cc:	e59d101c 	ldr	r1, [sp, #28]
    38d0:	e28d20a4 	add	r2, sp, #164	; 0xa4
    38d4:	eb0012ce 	bl	8414 <__sprint_r>
    38d8:	e3500000 	cmp	r0, #0
    38dc:	e28d40b0 	add	r4, sp, #176	; 0xb0
    38e0:	1afff9a2 	bne	1f70 <_vfprintf_r+0x394>
    38e4:	e59d8088 	ldr	r8, [sp, #136]	; 0x88
    38e8:	e59d60ac 	ldr	r6, [sp, #172]	; 0xac
    38ec:	e28d5d05 	add	r5, sp, #320	; 0x140
    38f0:	eaffff7f 	b	36f4 <_vfprintf_r+0x1b18>
    38f4:	e59d002c 	ldr	r0, [sp, #44]	; 0x2c
    38f8:	e59d101c 	ldr	r1, [sp, #28]
    38fc:	e28d20a4 	add	r2, sp, #164	; 0xa4
    3900:	eb0012c3 	bl	8414 <__sprint_r>
    3904:	e3500000 	cmp	r0, #0
    3908:	e28db0b0 	add	r11, sp, #176	; 0xb0
    390c:	1afff997 	bne	1f70 <_vfprintf_r+0x394>
    3910:	e59d60ac 	ldr	r6, [sp, #172]	; 0xac
    3914:	e28d5d05 	add	r5, sp, #320	; 0x140
    3918:	eafffc92 	b	2b68 <_vfprintf_r+0xf8c>
    391c:	e2844001 	add	r4, r4, #1
    3920:	e0866008 	add	r6, r6, r8
    3924:	e3540007 	cmp	r4, #7
    3928:	e8850180 	stm	r5, {r7, r8}
    392c:	e58d60ac 	str	r6, [sp, #172]	; 0xac
    3930:	e58d40a8 	str	r4, [sp, #168]	; 0xa8
    3934:	d2855008 	addle	r5, r5, #8
    3938:	da000008 	ble	3960 <_vfprintf_r+0x1d84>
    393c:	e59d002c 	ldr	r0, [sp, #44]	; 0x2c
    3940:	e59d101c 	ldr	r1, [sp, #28]
    3944:	e28d20a4 	add	r2, sp, #164	; 0xa4
    3948:	eb0012b1 	bl	8414 <__sprint_r>
    394c:	e3500000 	cmp	r0, #0
    3950:	1afff986 	bne	1f70 <_vfprintf_r+0x394>
    3954:	e28d40a8 	add	r4, sp, #168	; 0xa8
    3958:	e8940050 	ldm	r4, {r4, r6}
    395c:	e28d5d05 	add	r5, sp, #320	; 0x140
    3960:	e2844001 	add	r4, r4, #1
    3964:	e59d7044 	ldr	r7, [sp, #68]	; 0x44
    3968:	eafffc07 	b	298c <_vfprintf_r+0xdb0>
    396c:	eb001290 	bl	83b4 <strlen>
    3970:	e1c0cfc0 	bic	r12, r0, r0, asr #31
    3974:	e58d0038 	str	r0, [sp, #56]	; 0x38
    3978:	e58d6040 	str	r6, [sp, #64]	; 0x40
    397c:	e58dc020 	str	r12, [sp, #32]
    3980:	e5dd3083 	ldrb	r3, [sp, #131]	; 0x83
    3984:	e58d703c 	str	r7, [sp, #60]	; 0x3c
    3988:	e58d6060 	str	r6, [sp, #96]	; 0x60
    398c:	eafffa16 	b	21ec <_vfprintf_r+0x610>
    3990:	e59d002c 	ldr	r0, [sp, #44]	; 0x2c
    3994:	e59d101c 	ldr	r1, [sp, #28]
    3998:	e28d20a4 	add	r2, sp, #164	; 0xa4
    399c:	eb00129c 	bl	8414 <__sprint_r>
    39a0:	e3500000 	cmp	r0, #0
    39a4:	e28d60b0 	add	r6, sp, #176	; 0xb0
    39a8:	1afff970 	bne	1f70 <_vfprintf_r+0x394>
    39ac:	e59d60ac 	ldr	r6, [sp, #172]	; 0xac
    39b0:	e28d5d05 	add	r5, sp, #320	; 0x140
    39b4:	eafffd3f 	b	2eb8 <_vfprintf_r+0x12dc>
    39b8:	e59d002c 	ldr	r0, [sp, #44]	; 0x2c
    39bc:	e59d101c 	ldr	r1, [sp, #28]
    39c0:	e28d20a4 	add	r2, sp, #164	; 0xa4
    39c4:	eb001292 	bl	8414 <__sprint_r>
    39c8:	e3500000 	cmp	r0, #0
    39cc:	e28d60b0 	add	r6, sp, #176	; 0xb0
    39d0:	1afff966 	bne	1f70 <_vfprintf_r+0x394>
    39d4:	e59d3088 	ldr	r3, [sp, #136]	; 0x88
    39d8:	e59db044 	ldr	r11, [sp, #68]	; 0x44
    39dc:	e59d60ac 	ldr	r6, [sp, #172]	; 0xac
    39e0:	e063300b 	rsb	r3, r3, r11
    39e4:	e28d5d05 	add	r5, sp, #320	; 0x140
    39e8:	eafffde9 	b	3194 <_vfprintf_r+0x15b8>
    39ec:	e3540006 	cmp	r4, #6
    39f0:	23a04006 	movcs	r4, #6
    39f4:	e1c4cfc4 	bic	r12, r4, r4, asr #31
    39f8:	e58d4038 	str	r4, [sp, #56]	; 0x38
    39fc:	e51f4a90 	ldr	r4, [pc, #-2704]	; 2f74 <_vfprintf_r+0x1398>
    3a00:	e58dc020 	str	r12, [sp, #32]
    3a04:	e58d703c 	str	r7, [sp, #60]	; 0x3c
    3a08:	e58d404c 	str	r4, [sp, #76]	; 0x4c
    3a0c:	eafffb0a 	b	263c <_vfprintf_r+0xa60>
    3a10:	e59d6040 	ldr	r6, [sp, #64]	; 0x40
    3a14:	e5dd3083 	ldrb	r3, [sp, #131]	; 0x83
    3a18:	e58d6018 	str	r6, [sp, #24]
    3a1c:	e58db040 	str	r11, [sp, #64]	; 0x40
    3a20:	eafff9f1 	b	21ec <_vfprintf_r+0x610>
    3a24:	e3a02003 	mov	r2, #3
    3a28:	e28d3090 	add	r3, sp, #144	; 0x90
    3a2c:	e58da020 	str	r10, [sp, #32]
    3a30:	e28d0088 	add	r0, sp, #136	; 0x88
    3a34:	e28d108c 	add	r1, sp, #140	; 0x8c
    3a38:	e58d7024 	str	r7, [sp, #36]	; 0x24
    3a3c:	e88d0014 	stm	sp, {r2, r4}
    3a40:	e58d0008 	str	r0, [sp, #8]
    3a44:	e58d3010 	str	r3, [sp, #16]
    3a48:	e58d100c 	str	r1, [sp, #12]
    3a4c:	e59d002c 	ldr	r0, [sp, #44]	; 0x2c
    3a50:	e28d3020 	add	r3, sp, #32
    3a54:	e893000c 	ldm	r3, {r2, r3}
    3a58:	eb00022a 	bl	4308 <_dtoa_r>
    3a5c:	e3590047 	cmp	r9, #71	; 0x47
    3a60:	e58d004c 	str	r0, [sp, #76]	; 0x4c
    3a64:	1a000002 	bne	3a74 <_vfprintf_r+0x1e98>
    3a68:	e59dc018 	ldr	r12, [sp, #24]
    3a6c:	e31c0001 	tst	r12, #1
    3a70:	0a000009 	beq	3a9c <_vfprintf_r+0x1ec0>
    3a74:	e59dc04c 	ldr	r12, [sp, #76]	; 0x4c
    3a78:	e3560000 	cmp	r6, #0
    3a7c:	e08c6004 	add	r6, r12, r4
    3a80:	0afffe8f 	beq	34c4 <_vfprintf_r+0x18e8>
    3a84:	e5dc3000 	ldrb	r3, [r12]
    3a88:	e3530030 	cmp	r3, #48	; 0x30
    3a8c:	0a000075 	beq	3c68 <_vfprintf_r+0x208c>
    3a90:	e59d3088 	ldr	r3, [sp, #136]	; 0x88
    3a94:	e0866003 	add	r6, r6, r3
    3a98:	eafffe89 	b	34c4 <_vfprintf_r+0x18e8>
    3a9c:	e59d3090 	ldr	r3, [sp, #144]	; 0x90
    3aa0:	e0603003 	rsb	r3, r0, r3
    3aa4:	e58d3044 	str	r3, [sp, #68]	; 0x44
    3aa8:	e59d0088 	ldr	r0, [sp, #136]	; 0x88
    3aac:	e3700003 	cmn	r0, #3
    3ab0:	e1a03000 	mov	r3, r0
    3ab4:	ba000001 	blt	3ac0 <_vfprintf_r+0x1ee4>
    3ab8:	e1540000 	cmp	r4, r0
    3abc:	aafffe9a 	bge	352c <_vfprintf_r+0x1950>
    3ac0:	e2488002 	sub	r8, r8, #2
    3ac4:	e2400001 	sub	r0, r0, #1
    3ac8:	e3500000 	cmp	r0, #0
    3acc:	e58d0088 	str	r0, [sp, #136]	; 0x88
    3ad0:	b2600000 	rsblt	r0, r0, #0
    3ad4:	b3a0302d 	movlt	r3, #45	; 0x2d
    3ad8:	a3a0302b 	movge	r3, #43	; 0x2b
    3adc:	e3500009 	cmp	r0, #9
    3ae0:	e5cd8094 	strb	r8, [sp, #148]	; 0x94
    3ae4:	e5cd3095 	strb	r3, [sp, #149]	; 0x95
    3ae8:	ca000040 	bgt	3bf0 <_vfprintf_r+0x2014>
    3aec:	e2800030 	add	r0, r0, #48	; 0x30
    3af0:	e3a02030 	mov	r2, #48	; 0x30
    3af4:	e28d30a0 	add	r3, sp, #160	; 0xa0
    3af8:	e5cd0097 	strb	r0, [sp, #151]	; 0x97
    3afc:	e5cd2096 	strb	r2, [sp, #150]	; 0x96
    3b00:	e2432008 	sub	r2, r3, #8
    3b04:	e59d6044 	ldr	r6, [sp, #68]	; 0x44
    3b08:	e243300c 	sub	r3, r3, #12
    3b0c:	e0633002 	rsb	r3, r3, r2
    3b10:	e0867003 	add	r7, r6, r3
    3b14:	e3560001 	cmp	r6, #1
    3b18:	e58d3070 	str	r3, [sp, #112]	; 0x70
    3b1c:	e58d7038 	str	r7, [sp, #56]	; 0x38
    3b20:	da000072 	ble	3cf0 <_vfprintf_r+0x2114>
    3b24:	e59d6038 	ldr	r6, [sp, #56]	; 0x38
    3b28:	e2866001 	add	r6, r6, #1
    3b2c:	e1c67fc6 	bic	r7, r6, r6, asr #31
    3b30:	e3a0c000 	mov	r12, #0
    3b34:	e58d6038 	str	r6, [sp, #56]	; 0x38
    3b38:	e58d7020 	str	r7, [sp, #32]
    3b3c:	e58dc060 	str	r12, [sp, #96]	; 0x60
    3b40:	eafffe87 	b	3564 <_vfprintf_r+0x1988>
    3b44:	e1c46fc4 	bic	r6, r4, r4, asr #31
    3b48:	e58d0040 	str	r0, [sp, #64]	; 0x40
    3b4c:	e58d6020 	str	r6, [sp, #32]
    3b50:	e5dd3083 	ldrb	r3, [sp, #131]	; 0x83
    3b54:	e58d703c 	str	r7, [sp, #60]	; 0x3c
    3b58:	e58d4038 	str	r4, [sp, #56]	; 0x38
    3b5c:	e58d0060 	str	r0, [sp, #96]	; 0x60
    3b60:	eafff9a1 	b	21ec <_vfprintf_r+0x610>
    3b64:	e59d002c 	ldr	r0, [sp, #44]	; 0x2c
    3b68:	e59d101c 	ldr	r1, [sp, #28]
    3b6c:	e28d20a4 	add	r2, sp, #164	; 0xa4
    3b70:	eb001227 	bl	8414 <__sprint_r>
    3b74:	e3500000 	cmp	r0, #0
    3b78:	e28db0b0 	add	r11, sp, #176	; 0xb0
    3b7c:	1afff8fb 	bne	1f70 <_vfprintf_r+0x394>
    3b80:	e28d40a8 	add	r4, sp, #168	; 0xa8
    3b84:	e59d8088 	ldr	r8, [sp, #136]	; 0x88
    3b88:	e8940050 	ldm	r4, {r4, r6}
    3b8c:	e28d5d05 	add	r5, sp, #320	; 0x140
    3b90:	eafffee4 	b	3728 <_vfprintf_r+0x1b4c>
    3b94:	e3a02002 	mov	r2, #2
    3b98:	eaffffa2 	b	3a28 <_vfprintf_r+0x1e4c>
    3b9c:	e3530000 	cmp	r3, #0
    3ba0:	e59d4044 	ldr	r4, [sp, #68]	; 0x44
    3ba4:	d2632002 	rsble	r2, r3, #2
    3ba8:	c3a02001 	movgt	r2, #1
    3bac:	e0822004 	add	r2, r2, r4
    3bb0:	e1c26fc2 	bic	r6, r2, r2, asr #31
    3bb4:	e58d2038 	str	r2, [sp, #56]	; 0x38
    3bb8:	e58d6020 	str	r6, [sp, #32]
    3bbc:	e3a08067 	mov	r8, #103	; 0x67
    3bc0:	eafffe66 	b	3560 <_vfprintf_r+0x1984>
    3bc4:	e3530000 	cmp	r3, #0
    3bc8:	da000036 	ble	3ca8 <_vfprintf_r+0x20cc>
    3bcc:	e3540000 	cmp	r4, #0
    3bd0:	1a00002e 	bne	3c90 <_vfprintf_r+0x20b4>
    3bd4:	e59d6018 	ldr	r6, [sp, #24]
    3bd8:	e3160001 	tst	r6, #1
    3bdc:	1a00002b 	bne	3c90 <_vfprintf_r+0x20b4>
    3be0:	e1c37fc3 	bic	r7, r3, r3, asr #31
    3be4:	e58d7020 	str	r7, [sp, #32]
    3be8:	e58d3038 	str	r3, [sp, #56]	; 0x38
    3bec:	eafffe5b 	b	3560 <_vfprintf_r+0x1984>
    3bf0:	e28d30a0 	add	r3, sp, #160	; 0xa0
    3bf4:	e2832002 	add	r2, r3, #2
    3bf8:	e51f1c88 	ldr	r1, [pc, #-3208]	; 2f78 <_vfprintf_r+0x139c>
    3bfc:	e0cc4091 	smull	r4, r12, r1, r0
    3c00:	e1a01fc0 	asr	r1, r0, #31
    3c04:	e061114c 	rsb	r1, r1, r12, asr #2
    3c08:	e081c101 	add	r12, r1, r1, lsl #2
    3c0c:	e040c08c 	sub	r12, r0, r12, lsl #1
    3c10:	e1a00001 	mov	r0, r1
    3c14:	e3500009 	cmp	r0, #9
    3c18:	e1a01002 	mov	r1, r2
    3c1c:	e28c2030 	add	r2, r12, #48	; 0x30
    3c20:	e5c12000 	strb	r2, [r1]
    3c24:	e2412001 	sub	r2, r1, #1
    3c28:	cafffff2 	bgt	3bf8 <_vfprintf_r+0x201c>
    3c2c:	e2834003 	add	r4, r3, #3
    3c30:	e2800030 	add	r0, r0, #48	; 0x30
    3c34:	e1540002 	cmp	r4, r2
    3c38:	e5410001 	strb	r0, [r1, #-1]
    3c3c:	9a000037 	bls	3d20 <_vfprintf_r+0x2144>
    3c40:	e243c00b 	sub	r12, r3, #11
    3c44:	e1a02001 	mov	r2, r1
    3c48:	ea000000 	b	3c50 <_vfprintf_r+0x2074>
    3c4c:	e4d20001 	ldrb	r0, [r2], #1
    3c50:	e1520004 	cmp	r2, r4
    3c54:	e5ec0001 	strb	r0, [r12, #1]!
    3c58:	1afffffb 	bne	3c4c <_vfprintf_r+0x2070>
    3c5c:	e0612083 	rsb	r2, r1, r3, lsl #1
    3c60:	e2422006 	sub	r2, r2, #6
    3c64:	eaffffa6 	b	3b04 <_vfprintf_r+0x1f28>
    3c68:	e3a03000 	mov	r3, #0
    3c6c:	e1a0000a 	mov	r0, r10
    3c70:	e1a01007 	mov	r1, r7
    3c74:	e3a02000 	mov	r2, #0
    3c78:	ebfff5a2 	bl	1308 <__aeabi_dcmpeq>
    3c7c:	e3500000 	cmp	r0, #0
    3c80:	02643001 	rsbeq	r3, r4, #1
    3c84:	058d3088 	streq	r3, [sp, #136]	; 0x88
    3c88:	0affff81 	beq	3a94 <_vfprintf_r+0x1eb8>
    3c8c:	eaffff7f 	b	3a90 <_vfprintf_r+0x1eb4>
    3c90:	e2844001 	add	r4, r4, #1
    3c94:	e0834004 	add	r4, r3, r4
    3c98:	e1c4cfc4 	bic	r12, r4, r4, asr #31
    3c9c:	e58d4038 	str	r4, [sp, #56]	; 0x38
    3ca0:	e58dc020 	str	r12, [sp, #32]
    3ca4:	eafffe2d 	b	3560 <_vfprintf_r+0x1984>
    3ca8:	e3540000 	cmp	r4, #0
    3cac:	1a000016 	bne	3d0c <_vfprintf_r+0x2130>
    3cb0:	e59d6018 	ldr	r6, [sp, #24]
    3cb4:	e3160001 	tst	r6, #1
    3cb8:	1a000013 	bne	3d0c <_vfprintf_r+0x2130>
    3cbc:	e3a07001 	mov	r7, #1
    3cc0:	e58d7020 	str	r7, [sp, #32]
    3cc4:	e58d7038 	str	r7, [sp, #56]	; 0x38
    3cc8:	eafffe24 	b	3560 <_vfprintf_r+0x1984>
    3ccc:	e59db03c 	ldr	r11, [sp, #60]	; 0x3c
    3cd0:	e59b4000 	ldr	r4, [r11]
    3cd4:	e28b0004 	add	r0, r11, #4
    3cd8:	e3540000 	cmp	r4, #0
    3cdc:	e5d38001 	ldrb	r8, [r3, #1]
    3ce0:	e58d003c 	str	r0, [sp, #60]	; 0x3c
    3ce4:	e1a0300c 	mov	r3, r12
    3ce8:	b3e04000 	mvnlt	r4, #0
    3cec:	eafff81d 	b	1d68 <_vfprintf_r+0x18c>
    3cf0:	e59dc018 	ldr	r12, [sp, #24]
    3cf4:	e21c3001 	ands	r3, r12, #1
    3cf8:	1affff89 	bne	3b24 <_vfprintf_r+0x1f48>
    3cfc:	e1c74fc7 	bic	r4, r7, r7, asr #31
    3d00:	e58d4020 	str	r4, [sp, #32]
    3d04:	e58d3060 	str	r3, [sp, #96]	; 0x60
    3d08:	eafffe15 	b	3564 <_vfprintf_r+0x1988>
    3d0c:	e2844002 	add	r4, r4, #2
    3d10:	e1c47fc4 	bic	r7, r4, r4, asr #31
    3d14:	e58d4038 	str	r4, [sp, #56]	; 0x38
    3d18:	e58d7020 	str	r7, [sp, #32]
    3d1c:	eafffe0f 	b	3560 <_vfprintf_r+0x1984>
    3d20:	e243200a 	sub	r2, r3, #10
    3d24:	eaffff76 	b	3b04 <_vfprintf_r+0x1f28>
    3d28:	e59d0088 	ldr	r0, [sp, #136]	; 0x88
    3d2c:	eaffff64 	b	3ac4 <_vfprintf_r+0x1ee8>

00003d30 <vfprintf>:
    3d30:	e52d4004 	push	{r4}		; (str r4, [sp, #-4]!)
    3d34:	e1a03002 	mov	r3, r2
    3d38:	e59f2018 	ldr	r2, [pc, #24]	; 3d58 <vfprintf+0x28>
    3d3c:	e1a04000 	mov	r4, r0
    3d40:	e1a0c001 	mov	r12, r1
    3d44:	e5920000 	ldr	r0, [r2]
    3d48:	e1a01004 	mov	r1, r4
    3d4c:	e1a0200c 	mov	r2, r12
    3d50:	e8bd0010 	ldmfd	sp!, {r4}
    3d54:	eafff7a0 	b	1bdc <_vfprintf_r>
    3d58:	0000c100 	.word	0x0000c100

00003d5c <__swsetup_r>:
    3d5c:	e92d4038 	push	{r3, r4, r5, lr}
    3d60:	e59f3128 	ldr	r3, [pc, #296]	; 3e90 <__swsetup_r+0x134>
    3d64:	e5933000 	ldr	r3, [r3]
    3d68:	e3530000 	cmp	r3, #0
    3d6c:	e1a05000 	mov	r5, r0
    3d70:	e1a04001 	mov	r4, r1
    3d74:	0a000002 	beq	3d84 <__swsetup_r+0x28>
    3d78:	e5932038 	ldr	r2, [r3, #56]	; 0x38
    3d7c:	e3520000 	cmp	r2, #0
    3d80:	0a00002e 	beq	3e40 <__swsetup_r+0xe4>
    3d84:	e1d430bc 	ldrh	r3, [r4, #12]
    3d88:	e3130008 	tst	r3, #8
    3d8c:	e1a02003 	mov	r2, r3
    3d90:	0a00000c 	beq	3dc8 <__swsetup_r+0x6c>
    3d94:	e5942010 	ldr	r2, [r4, #16]
    3d98:	e3520000 	cmp	r2, #0
    3d9c:	0a000012 	beq	3dec <__swsetup_r+0x90>
    3da0:	e2131001 	ands	r1, r3, #1
    3da4:	1a000019 	bne	3e10 <__swsetup_r+0xb4>
    3da8:	e3130002 	tst	r3, #2
    3dac:	05941014 	ldreq	r1, [r4, #20]
    3db0:	e3520000 	cmp	r2, #0
    3db4:	e5841008 	str	r1, [r4, #8]
    3db8:	0a00001b 	beq	3e2c <__swsetup_r+0xd0>
    3dbc:	e3a00000 	mov	r0, #0
    3dc0:	e8bd4038 	pop	{r3, r4, r5, lr}
    3dc4:	e12fff1e 	bx	lr
    3dc8:	e3130010 	tst	r3, #16
    3dcc:	0a000019 	beq	3e38 <__swsetup_r+0xdc>
    3dd0:	e3120004 	tst	r2, #4
    3dd4:	1a00001c 	bne	3e4c <__swsetup_r+0xf0>
    3dd8:	e5942010 	ldr	r2, [r4, #16]
    3ddc:	e3833008 	orr	r3, r3, #8
    3de0:	e3520000 	cmp	r2, #0
    3de4:	e1c430bc 	strh	r3, [r4, #12]
    3de8:	1affffec 	bne	3da0 <__swsetup_r+0x44>
    3dec:	e2031d0a 	and	r1, r3, #640	; 0x280
    3df0:	e3510c02 	cmp	r1, #512	; 0x200
    3df4:	0affffe9 	beq	3da0 <__swsetup_r+0x44>
    3df8:	e1a00005 	mov	r0, r5
    3dfc:	e1a01004 	mov	r1, r4
    3e00:	eb0009a2 	bl	6490 <__smakebuf_r>
    3e04:	e1d430bc 	ldrh	r3, [r4, #12]
    3e08:	e5942010 	ldr	r2, [r4, #16]
    3e0c:	eaffffe3 	b	3da0 <__swsetup_r+0x44>
    3e10:	e5943014 	ldr	r3, [r4, #20]
    3e14:	e3a01000 	mov	r1, #0
    3e18:	e2633000 	rsb	r3, r3, #0
    3e1c:	e3520000 	cmp	r2, #0
    3e20:	e5841008 	str	r1, [r4, #8]
    3e24:	e5843018 	str	r3, [r4, #24]
    3e28:	1affffe3 	bne	3dbc <__swsetup_r+0x60>
    3e2c:	e1d430bc 	ldrh	r3, [r4, #12]
    3e30:	e3130080 	tst	r3, #128	; 0x80
    3e34:	0affffe0 	beq	3dbc <__swsetup_r+0x60>
    3e38:	e3e00000 	mvn	r0, #0
    3e3c:	eaffffdf 	b	3dc0 <__swsetup_r+0x64>
    3e40:	e1a00003 	mov	r0, r3
    3e44:	eb0007bb 	bl	5d38 <__sinit>
    3e48:	eaffffcd 	b	3d84 <__swsetup_r+0x28>
    3e4c:	e5941030 	ldr	r1, [r4, #48]	; 0x30
    3e50:	e3510000 	cmp	r1, #0
    3e54:	0a000007 	beq	3e78 <__swsetup_r+0x11c>
    3e58:	e2842040 	add	r2, r4, #64	; 0x40
    3e5c:	e1510002 	cmp	r1, r2
    3e60:	0a000002 	beq	3e70 <__swsetup_r+0x114>
    3e64:	e1a00005 	mov	r0, r5
    3e68:	eb000874 	bl	6040 <_free_r>
    3e6c:	e1d430bc 	ldrh	r3, [r4, #12]
    3e70:	e3a02000 	mov	r2, #0
    3e74:	e5842030 	str	r2, [r4, #48]	; 0x30
    3e78:	e5942010 	ldr	r2, [r4, #16]
    3e7c:	e3a01000 	mov	r1, #0
    3e80:	e3c33024 	bic	r3, r3, #36	; 0x24
    3e84:	e5841004 	str	r1, [r4, #4]
    3e88:	e5842000 	str	r2, [r4]
    3e8c:	eaffffd2 	b	3ddc <__swsetup_r+0x80>
    3e90:	0000c100 	.word	0x0000c100

00003e94 <__register_exitproc>:
    3e94:	e59fc0e4 	ldr	r12, [pc, #228]	; 3f80 <__register_exitproc+0xec>
    3e98:	e92d41f0 	push	{r4, r5, r6, r7, r8, lr}
    3e9c:	e59c4000 	ldr	r4, [r12]
    3ea0:	e594c148 	ldr	r12, [r4, #328]	; 0x148
    3ea4:	e35c0000 	cmp	r12, #0
    3ea8:	0284cf53 	addeq	r12, r4, #332	; 0x14c
    3eac:	e59c5004 	ldr	r5, [r12, #4]
    3eb0:	0584c148 	streq	r12, [r4, #328]	; 0x148
    3eb4:	e355001f 	cmp	r5, #31
    3eb8:	e24dd010 	sub	sp, sp, #16
    3ebc:	e1a06000 	mov	r6, r0
    3ec0:	da000015 	ble	3f1c <__register_exitproc+0x88>
    3ec4:	e59f00b8 	ldr	r0, [pc, #184]	; 3f84 <__register_exitproc+0xf0>
    3ec8:	e3500000 	cmp	r0, #0
    3ecc:	1a000001 	bne	3ed8 <__register_exitproc+0x44>
    3ed0:	e3e00000 	mvn	r0, #0
    3ed4:	ea000018 	b	3f3c <__register_exitproc+0xa8>
    3ed8:	e3a00e19 	mov	r0, #400	; 0x190
    3edc:	e58d100c 	str	r1, [sp, #12]
    3ee0:	e58d2008 	str	r2, [sp, #8]
    3ee4:	e58d3004 	str	r3, [sp, #4]
    3ee8:	e320f000 	nop	{0}
    3eec:	e250c000 	subs	r12, r0, #0
    3ef0:	e59d100c 	ldr	r1, [sp, #12]
    3ef4:	e59d2008 	ldr	r2, [sp, #8]
    3ef8:	e59d3004 	ldr	r3, [sp, #4]
    3efc:	0afffff3 	beq	3ed0 <__register_exitproc+0x3c>
    3f00:	e5945148 	ldr	r5, [r4, #328]	; 0x148
    3f04:	e3a00000 	mov	r0, #0
    3f08:	e58c0004 	str	r0, [r12, #4]
    3f0c:	e58c5000 	str	r5, [r12]
    3f10:	e584c148 	str	r12, [r4, #328]	; 0x148
    3f14:	e58c0188 	str	r0, [r12, #392]	; 0x188
    3f18:	e58c018c 	str	r0, [r12, #396]	; 0x18c
    3f1c:	e3560000 	cmp	r6, #0
    3f20:	e59c4004 	ldr	r4, [r12, #4]
    3f24:	1a000007 	bne	3f48 <__register_exitproc+0xb4>
    3f28:	e2843002 	add	r3, r4, #2
    3f2c:	e2844001 	add	r4, r4, #1
    3f30:	e78c1103 	str	r1, [r12, r3, lsl #2]
    3f34:	e58c4004 	str	r4, [r12, #4]
    3f38:	e3a00000 	mov	r0, #0
    3f3c:	e28dd010 	add	sp, sp, #16
    3f40:	e8bd41f0 	pop	{r4, r5, r6, r7, r8, lr}
    3f44:	e12fff1e 	bx	lr
    3f48:	e3a00001 	mov	r0, #1
    3f4c:	e1a00410 	lsl	r0, r0, r4
    3f50:	e08c8104 	add	r8, r12, r4, lsl #2
    3f54:	e3560002 	cmp	r6, #2
    3f58:	e59c7188 	ldr	r7, [r12, #392]	; 0x188
    3f5c:	e5883108 	str	r3, [r8, #264]	; 0x108
    3f60:	059c318c 	ldreq	r3, [r12, #396]	; 0x18c
    3f64:	e1877000 	orr	r7, r7, r0
    3f68:	01830000 	orreq	r0, r3, r0
    3f6c:	e1a05008 	mov	r5, r8
    3f70:	e5882088 	str	r2, [r8, #136]	; 0x88
    3f74:	e58c7188 	str	r7, [r12, #392]	; 0x188
    3f78:	058c018c 	streq	r0, [r12, #396]	; 0x18c
    3f7c:	eaffffe9 	b	3f28 <__register_exitproc+0x94>
    3f80:	0000becc 	.word	0x0000becc
    3f84:	00000000 	.word	0x00000000

00003f88 <__call_exitprocs>:
    3f88:	e92d4ff0 	push	{r4, r5, r6, r7, r8, r9, r10, r11, lr}
    3f8c:	e59f3168 	ldr	r3, [pc, #360]	; 40fc <__call_exitprocs+0x174>
    3f90:	e5933000 	ldr	r3, [r3]
    3f94:	e24dd014 	sub	sp, sp, #20
    3f98:	e58d3004 	str	r3, [sp, #4]
    3f9c:	e2833f52 	add	r3, r3, #328	; 0x148
    3fa0:	e58d0008 	str	r0, [sp, #8]
    3fa4:	e58d300c 	str	r3, [sp, #12]
    3fa8:	e1a07001 	mov	r7, r1
    3fac:	e3a08001 	mov	r8, #1
    3fb0:	e59d3004 	ldr	r3, [sp, #4]
    3fb4:	e5936148 	ldr	r6, [r3, #328]	; 0x148
    3fb8:	e3560000 	cmp	r6, #0
    3fbc:	e59db00c 	ldr	r11, [sp, #12]
    3fc0:	0a000033 	beq	4094 <__call_exitprocs+0x10c>
    3fc4:	e5965004 	ldr	r5, [r6, #4]
    3fc8:	e2554001 	subs	r4, r5, #1
    3fcc:	5286a088 	addpl	r10, r6, #136	; 0x88
    3fd0:	5285501f 	addpl	r5, r5, #31
    3fd4:	508a5105 	addpl	r5, r10, r5, lsl #2
    3fd8:	5a000007 	bpl	3ffc <__call_exitprocs+0x74>
    3fdc:	ea000029 	b	4088 <__call_exitprocs+0x100>
    3fe0:	e5953000 	ldr	r3, [r5]
    3fe4:	e1530007 	cmp	r3, r7
    3fe8:	0a000005 	beq	4004 <__call_exitprocs+0x7c>
    3fec:	e2444001 	sub	r4, r4, #1
    3ff0:	e3740001 	cmn	r4, #1
    3ff4:	e2455004 	sub	r5, r5, #4
    3ff8:	0a000022 	beq	4088 <__call_exitprocs+0x100>
    3ffc:	e3570000 	cmp	r7, #0
    4000:	1afffff6 	bne	3fe0 <__call_exitprocs+0x58>
    4004:	e5963004 	ldr	r3, [r6, #4]
    4008:	e06a2005 	rsb	r2, r10, r5
    400c:	e2433001 	sub	r3, r3, #1
    4010:	e0862002 	add	r2, r6, r2
    4014:	e1530004 	cmp	r3, r4
    4018:	e5123078 	ldr	r3, [r2, #-120]	; 0xffffff88
    401c:	13a01000 	movne	r1, #0
    4020:	05864004 	streq	r4, [r6, #4]
    4024:	15021078 	strne	r1, [r2, #-120]	; 0xffffff88
    4028:	e3530000 	cmp	r3, #0
    402c:	0affffee 	beq	3fec <__call_exitprocs+0x64>
    4030:	e1a02418 	lsl	r2, r8, r4
    4034:	e5961188 	ldr	r1, [r6, #392]	; 0x188
    4038:	e1120001 	tst	r2, r1
    403c:	e5969004 	ldr	r9, [r6, #4]
    4040:	0a000016 	beq	40a0 <__call_exitprocs+0x118>
    4044:	e596118c 	ldr	r1, [r6, #396]	; 0x18c
    4048:	e1120001 	tst	r2, r1
    404c:	1a000016 	bne	40ac <__call_exitprocs+0x124>
    4050:	e59d0008 	ldr	r0, [sp, #8]
    4054:	e5151080 	ldr	r1, [r5, #-128]	; 0xffffff80
    4058:	e1a0e00f 	mov	lr, pc
    405c:	e12fff13 	bx	r3
    4060:	e5963004 	ldr	r3, [r6, #4]
    4064:	e1530009 	cmp	r3, r9
    4068:	1affffd0 	bne	3fb0 <__call_exitprocs+0x28>
    406c:	e59b3000 	ldr	r3, [r11]
    4070:	e1530006 	cmp	r3, r6
    4074:	1affffcd 	bne	3fb0 <__call_exitprocs+0x28>
    4078:	e2444001 	sub	r4, r4, #1
    407c:	e3740001 	cmn	r4, #1
    4080:	e2455004 	sub	r5, r5, #4
    4084:	1affffdc 	bne	3ffc <__call_exitprocs+0x74>
    4088:	e59f1070 	ldr	r1, [pc, #112]	; 4100 <__call_exitprocs+0x178>
    408c:	e3510000 	cmp	r1, #0
    4090:	1a000009 	bne	40bc <__call_exitprocs+0x134>
    4094:	e28dd014 	add	sp, sp, #20
    4098:	e8bd4ff0 	pop	{r4, r5, r6, r7, r8, r9, r10, r11, lr}
    409c:	e12fff1e 	bx	lr
    40a0:	e1a0e00f 	mov	lr, pc
    40a4:	e12fff13 	bx	r3
    40a8:	eaffffec 	b	4060 <__call_exitprocs+0xd8>
    40ac:	e5150080 	ldr	r0, [r5, #-128]	; 0xffffff80
    40b0:	e1a0e00f 	mov	lr, pc
    40b4:	e12fff13 	bx	r3
    40b8:	eaffffe8 	b	4060 <__call_exitprocs+0xd8>
    40bc:	e5963004 	ldr	r3, [r6, #4]
    40c0:	e3530000 	cmp	r3, #0
    40c4:	e5963000 	ldr	r3, [r6]
    40c8:	1a000008 	bne	40f0 <__call_exitprocs+0x168>
    40cc:	e3530000 	cmp	r3, #0
    40d0:	0a000006 	beq	40f0 <__call_exitprocs+0x168>
    40d4:	e1a00006 	mov	r0, r6
    40d8:	e58b3000 	str	r3, [r11]
    40dc:	e320f000 	nop	{0}
    40e0:	e59b6000 	ldr	r6, [r11]
    40e4:	e3560000 	cmp	r6, #0
    40e8:	1affffb5 	bne	3fc4 <__call_exitprocs+0x3c>
    40ec:	eaffffe8 	b	4094 <__call_exitprocs+0x10c>
    40f0:	e1a0b006 	mov	r11, r6
    40f4:	e1a06003 	mov	r6, r3
    40f8:	eafffff9 	b	40e4 <__call_exitprocs+0x15c>
    40fc:	0000becc 	.word	0x0000becc
    4100:	00000000 	.word	0x00000000

00004104 <register_fini>:
    4104:	e92d4008 	push	{r3, lr}
    4108:	e59f3010 	ldr	r3, [pc, #16]	; 4120 <register_fini+0x1c>
    410c:	e3530000 	cmp	r3, #0
    4110:	159f000c 	ldrne	r0, [pc, #12]	; 4124 <register_fini+0x20>
    4114:	1bfff66f 	blne	1ad8 <atexit>
    4118:	e8bd4008 	pop	{r3, lr}
    411c:	e12fff1e 	bx	lr
    4120:	0000c0c8 	.word	0x0000c0c8
    4124:	00005f00 	.word	0x00005f00

00004128 <quorem>:
    4128:	e92d4ff8 	push	{r3, r4, r5, r6, r7, r8, r9, r10, r11, lr}
    412c:	e5903010 	ldr	r3, [r0, #16]
    4130:	e5916010 	ldr	r6, [r1, #16]
    4134:	e1560003 	cmp	r6, r3
    4138:	e1a0a000 	mov	r10, r0
    413c:	e1a05001 	mov	r5, r1
    4140:	c3a00000 	movgt	r0, #0
    4144:	ca00006d 	bgt	4300 <quorem+0x1d8>
    4148:	e2863003 	add	r3, r6, #3
    414c:	e1a03103 	lsl	r3, r3, #2
    4150:	e0819003 	add	r9, r1, r3
    4154:	e5991004 	ldr	r1, [r9, #4]
    4158:	e08a3003 	add	r3, r10, r3
    415c:	e5930004 	ldr	r0, [r3, #4]
    4160:	e2811001 	add	r1, r1, #1
    4164:	eb001a8c 	bl	ab9c <__aeabi_uidiv>
    4168:	e2507000 	subs	r7, r0, #0
    416c:	e2466001 	sub	r6, r6, #1
    4170:	e2899004 	add	r9, r9, #4
    4174:	e2854014 	add	r4, r5, #20
    4178:	e28a8014 	add	r8, r10, #20
    417c:	0a000030 	beq	4244 <quorem+0x11c>
    4180:	e3a0c000 	mov	r12, #0
    4184:	e1a02008 	mov	r2, r8
    4188:	e1a03004 	mov	r3, r4
    418c:	e1a0000c 	mov	r0, r12
    4190:	e493e004 	ldr	lr, [r3], #4
    4194:	e1a0b80e 	lsl	r11, lr, #16
    4198:	e1a0b82b 	lsr	r11, r11, #16
    419c:	e1a0e82e 	lsr	lr, lr, #16
    41a0:	e02bcb97 	mla	r11, r7, r11, r12
    41a4:	e00c0e97 	mul	r12, r7, lr
    41a8:	e592e000 	ldr	lr, [r2]
    41ac:	e08cc82b 	add	r12, r12, r11, lsr #16
    41b0:	e1a0180e 	lsl	r1, lr, #16
    41b4:	e0801821 	add	r1, r0, r1, lsr #16
    41b8:	e1a0b80b 	lsl	r11, r11, #16
    41bc:	e1a0080c 	lsl	r0, r12, #16
    41c0:	e041182b 	sub	r1, r1, r11, lsr #16
    41c4:	e1a00820 	lsr	r0, r0, #16
    41c8:	e060082e 	rsb	r0, r0, lr, lsr #16
    41cc:	e1a0b801 	lsl	r11, r1, #16
    41d0:	e0800841 	add	r0, r0, r1, asr #16
    41d4:	e1a0182b 	lsr	r1, r11, #16
    41d8:	e1811800 	orr	r1, r1, r0, lsl #16
    41dc:	e1590003 	cmp	r9, r3
    41e0:	e1a0c82c 	lsr	r12, r12, #16
    41e4:	e1a00840 	asr	r0, r0, #16
    41e8:	e4821004 	str	r1, [r2], #4
    41ec:	2affffe7 	bcs	4190 <quorem+0x68>
    41f0:	e2863004 	add	r3, r6, #4
    41f4:	e08a3103 	add	r3, r10, r3, lsl #2
    41f8:	e5932004 	ldr	r2, [r3, #4]
    41fc:	e3520000 	cmp	r2, #0
    4200:	1a00000f 	bne	4244 <quorem+0x11c>
    4204:	e1580003 	cmp	r8, r3
    4208:	e2832004 	add	r2, r3, #4
    420c:	2a00000b 	bcs	4240 <quorem+0x118>
    4210:	e5122004 	ldr	r2, [r2, #-4]
    4214:	e3520000 	cmp	r2, #0
    4218:	1a000008 	bne	4240 <quorem+0x118>
    421c:	e2433004 	sub	r3, r3, #4
    4220:	ea000003 	b	4234 <quorem+0x10c>
    4224:	e5932000 	ldr	r2, [r3]
    4228:	e3520000 	cmp	r2, #0
    422c:	e2433004 	sub	r3, r3, #4
    4230:	1a000002 	bne	4240 <quorem+0x118>
    4234:	e1580003 	cmp	r8, r3
    4238:	e2466001 	sub	r6, r6, #1
    423c:	3afffff8 	bcc	4224 <quorem+0xfc>
    4240:	e58a6010 	str	r6, [r10, #16]
    4244:	e1a0000a 	mov	r0, r10
    4248:	e1a01005 	mov	r1, r5
    424c:	eb000d9c 	bl	78c4 <__mcmp>
    4250:	e3500000 	cmp	r0, #0
    4254:	ba000028 	blt	42fc <quorem+0x1d4>
    4258:	e2877001 	add	r7, r7, #1
    425c:	e1a03008 	mov	r3, r8
    4260:	e3a02000 	mov	r2, #0
    4264:	e4945004 	ldr	r5, [r4], #4
    4268:	e593c000 	ldr	r12, [r3]
    426c:	e1a01805 	lsl	r1, r5, #16
    4270:	e1a0080c 	lsl	r0, r12, #16
    4274:	e1a01821 	lsr	r1, r1, #16
    4278:	e0611820 	rsb	r1, r1, r0, lsr #16
    427c:	e0811002 	add	r1, r1, r2
    4280:	e1a02825 	lsr	r2, r5, #16
    4284:	e062282c 	rsb	r2, r2, r12, lsr #16
    4288:	e1a00801 	lsl	r0, r1, #16
    428c:	e0822841 	add	r2, r2, r1, asr #16
    4290:	e1a01820 	lsr	r1, r0, #16
    4294:	e1811802 	orr	r1, r1, r2, lsl #16
    4298:	e1590004 	cmp	r9, r4
    429c:	e1a02842 	asr	r2, r2, #16
    42a0:	e4831004 	str	r1, [r3], #4
    42a4:	2affffee 	bcs	4264 <quorem+0x13c>
    42a8:	e2863004 	add	r3, r6, #4
    42ac:	e08a3103 	add	r3, r10, r3, lsl #2
    42b0:	e5932004 	ldr	r2, [r3, #4]
    42b4:	e3520000 	cmp	r2, #0
    42b8:	1a00000f 	bne	42fc <quorem+0x1d4>
    42bc:	e1580003 	cmp	r8, r3
    42c0:	e2832004 	add	r2, r3, #4
    42c4:	2a00000b 	bcs	42f8 <quorem+0x1d0>
    42c8:	e5122004 	ldr	r2, [r2, #-4]
    42cc:	e3520000 	cmp	r2, #0
    42d0:	1a000008 	bne	42f8 <quorem+0x1d0>
    42d4:	e2433004 	sub	r3, r3, #4
    42d8:	ea000003 	b	42ec <quorem+0x1c4>
    42dc:	e5932000 	ldr	r2, [r3]
    42e0:	e3520000 	cmp	r2, #0
    42e4:	e2433004 	sub	r3, r3, #4
    42e8:	1a000002 	bne	42f8 <quorem+0x1d0>
    42ec:	e1580003 	cmp	r8, r3
    42f0:	e2466001 	sub	r6, r6, #1
    42f4:	3afffff8 	bcc	42dc <quorem+0x1b4>
    42f8:	e58a6010 	str	r6, [r10, #16]
    42fc:	e1a00007 	mov	r0, r7
    4300:	e8bd4ff8 	pop	{r3, r4, r5, r6, r7, r8, r9, r10, r11, lr}
    4304:	e12fff1e 	bx	lr

00004308 <_dtoa_r>:
    4308:	e92d4ff0 	push	{r4, r5, r6, r7, r8, r9, r10, r11, lr}
    430c:	e5901040 	ldr	r1, [r0, #64]	; 0x40
    4310:	e24dd07c 	sub	sp, sp, #124	; 0x7c
    4314:	e3510000 	cmp	r1, #0
    4318:	e1a06000 	mov	r6, r0
    431c:	e59d40ac 	ldr	r4, [sp, #172]	; 0xac
    4320:	e58d2010 	str	r2, [sp, #16]
    4324:	e58d3014 	str	r3, [sp, #20]
    4328:	0a000007 	beq	434c <_dtoa_r+0x44>
    432c:	e5903044 	ldr	r3, [r0, #68]	; 0x44
    4330:	e3a02001 	mov	r2, #1
    4334:	e1a02312 	lsl	r2, r2, r3
    4338:	e5813004 	str	r3, [r1, #4]
    433c:	e5812008 	str	r2, [r1, #8]
    4340:	eb000bac 	bl	71f8 <_Bfree>
    4344:	e3a03000 	mov	r3, #0
    4348:	e5863040 	str	r3, [r6, #64]	; 0x40
    434c:	e59da014 	ldr	r10, [sp, #20]
    4350:	e35a0000 	cmp	r10, #0
    4354:	b3a03001 	movlt	r3, #1
    4358:	a3a03000 	movge	r3, #0
    435c:	b5843000 	strlt	r3, [r4]
    4360:	a5843000 	strge	r3, [r4]
    4364:	e59f3570 	ldr	r3, [pc, #1392]	; 48dc <_dtoa_r+0x5d4>
    4368:	b3caa102 	biclt	r10, r10, #-2147483648	; 0x80000000
    436c:	e59f2568 	ldr	r2, [pc, #1384]	; 48dc <_dtoa_r+0x5d4>
    4370:	b1a0100a 	movlt	r1, r10
    4374:	e00a3003 	and	r3, r10, r3
    4378:	b58d1014 	strlt	r1, [sp, #20]
    437c:	e1530002 	cmp	r3, r2
    4380:	0a000016 	beq	43e0 <_dtoa_r+0xd8>
    4384:	e28d5010 	add	r5, sp, #16
    4388:	e8950030 	ldm	r5, {r4, r5}
    438c:	e3a02000 	mov	r2, #0
    4390:	e1a00004 	mov	r0, r4
    4394:	e1a01005 	mov	r1, r5
    4398:	e3a03000 	mov	r3, #0
    439c:	ebfff3d9 	bl	1308 <__aeabi_dcmpeq>
    43a0:	e3500000 	cmp	r0, #0
    43a4:	0a00001e 	beq	4424 <_dtoa_r+0x11c>
    43a8:	e59d40b0 	ldr	r4, [sp, #176]	; 0xb0
    43ac:	e59dc0a8 	ldr	r12, [sp, #168]	; 0xa8
    43b0:	e3a03001 	mov	r3, #1
    43b4:	e3540000 	cmp	r4, #0
    43b8:	e58c3000 	str	r3, [r12]
    43bc:	0a00009a 	beq	462c <_dtoa_r+0x324>
    43c0:	e59f44e8 	ldr	r4, [pc, #1256]	; 48b0 <_dtoa_r+0x5a8>
    43c4:	e59dc0b0 	ldr	r12, [sp, #176]	; 0xb0
    43c8:	e58c4000 	str	r4, [r12]
    43cc:	e2444001 	sub	r4, r4, #1
    43d0:	e1a00004 	mov	r0, r4
    43d4:	e28dd07c 	add	sp, sp, #124	; 0x7c
    43d8:	e8bd4ff0 	pop	{r4, r5, r6, r7, r8, r9, r10, r11, lr}
    43dc:	e12fff1e 	bx	lr
    43e0:	e59d2010 	ldr	r2, [sp, #16]
    43e4:	e59f34c8 	ldr	r3, [pc, #1224]	; 48b4 <_dtoa_r+0x5ac>
    43e8:	e59d40a8 	ldr	r4, [sp, #168]	; 0xa8
    43ec:	e3520000 	cmp	r2, #0
    43f0:	e5843000 	str	r3, [r4]
    43f4:	0a000079 	beq	45e0 <_dtoa_r+0x2d8>
    43f8:	e59f44b8 	ldr	r4, [pc, #1208]	; 48b8 <_dtoa_r+0x5b0>
    43fc:	e59dc0b0 	ldr	r12, [sp, #176]	; 0xb0
    4400:	e35c0000 	cmp	r12, #0
    4404:	0afffff1 	beq	43d0 <_dtoa_r+0xc8>
    4408:	e5d43003 	ldrb	r3, [r4, #3]
    440c:	e59dc0b0 	ldr	r12, [sp, #176]	; 0xb0
    4410:	e3530000 	cmp	r3, #0
    4414:	12843008 	addne	r3, r4, #8
    4418:	02843003 	addeq	r3, r4, #3
    441c:	e58c3000 	str	r3, [r12]
    4420:	eaffffea 	b	43d0 <_dtoa_r+0xc8>
    4424:	e28d3074 	add	r3, sp, #116	; 0x74
    4428:	e58d3000 	str	r3, [sp]
    442c:	e28d3070 	add	r3, sp, #112	; 0x70
    4430:	e58d3004 	str	r3, [sp, #4]
    4434:	e1a00006 	mov	r0, r6
    4438:	e1a02004 	mov	r2, r4
    443c:	e1a03005 	mov	r3, r5
    4440:	eb000dd7 	bl	7ba4 <__d2b>
    4444:	e1a0708a 	lsl	r7, r10, #1
    4448:	e1b07aa7 	lsrs	r7, r7, #21
    444c:	e1a0b000 	mov	r11, r0
    4450:	1a00006a 	bne	4600 <_dtoa_r+0x2f8>
    4454:	e59d8070 	ldr	r8, [sp, #112]	; 0x70
    4458:	e59d7074 	ldr	r7, [sp, #116]	; 0x74
    445c:	e3e03e41 	mvn	r3, #1040	; 0x410
    4460:	e0887007 	add	r7, r8, r7
    4464:	e1570003 	cmp	r7, r3
    4468:	ba0001da 	blt	4bd8 <_dtoa_r+0x8d0>
    446c:	e2870e41 	add	r0, r7, #1040	; 0x410
    4470:	e59dc010 	ldr	r12, [sp, #16]
    4474:	e2800002 	add	r0, r0, #2
    4478:	e1a0003c 	lsr	r0, r12, r0
    447c:	e283301f 	add	r3, r3, #31
    4480:	e0673003 	rsb	r3, r7, r3
    4484:	e180031a 	orr	r0, r0, r10, lsl r3
    4488:	ebfff204 	bl	ca0 <__aeabi_ui2d>
    448c:	e3a04001 	mov	r4, #1
    4490:	e58d4060 	str	r4, [sp, #96]	; 0x60
    4494:	e241161f 	sub	r1, r1, #32505856	; 0x1f00000
    4498:	e2477001 	sub	r7, r7, #1
    449c:	e3a02000 	mov	r2, #0
    44a0:	e59f3414 	ldr	r3, [pc, #1044]	; 48bc <_dtoa_r+0x5b4>
    44a4:	ebfff138 	bl	98c <__aeabi_dsub>
    44a8:	e28f3ffa 	add	r3, pc, #1000	; 0x3e8
    44ac:	e893000c 	ldm	r3, {r2, r3}
    44b0:	ebfff23a 	bl	da0 <__aeabi_dmul>
    44b4:	e28f3ff9 	add	r3, pc, #996	; 0x3e4
    44b8:	e893000c 	ldm	r3, {r2, r3}
    44bc:	ebfff133 	bl	990 <__adddf3>
    44c0:	e1a04000 	mov	r4, r0
    44c4:	e1a00007 	mov	r0, r7
    44c8:	e1a05001 	mov	r5, r1
    44cc:	ebfff1fc 	bl	cc4 <__aeabi_i2d>
    44d0:	e28f3e3d 	add	r3, pc, #976	; 0x3d0
    44d4:	e893000c 	ldm	r3, {r2, r3}
    44d8:	ebfff230 	bl	da0 <__aeabi_dmul>
    44dc:	e1a02000 	mov	r2, r0
    44e0:	e1a03001 	mov	r3, r1
    44e4:	e1a00004 	mov	r0, r4
    44e8:	e1a01005 	mov	r1, r5
    44ec:	ebfff127 	bl	990 <__adddf3>
    44f0:	e1a04000 	mov	r4, r0
    44f4:	e1a05001 	mov	r5, r1
    44f8:	eb0019ed 	bl	acb4 <__aeabi_d2iz>
    44fc:	e1a01005 	mov	r1, r5
    4500:	e1a09000 	mov	r9, r0
    4504:	e3a02000 	mov	r2, #0
    4508:	e1a00004 	mov	r0, r4
    450c:	e3a03000 	mov	r3, #0
    4510:	ebfff382 	bl	1320 <__aeabi_dcmplt>
    4514:	e3500000 	cmp	r0, #0
    4518:	1a0001a6 	bne	4bb8 <_dtoa_r+0x8b0>
    451c:	e3590016 	cmp	r9, #22
    4520:	83a04001 	movhi	r4, #1
    4524:	858d404c 	strhi	r4, [sp, #76]	; 0x4c
    4528:	8a00000a 	bhi	4558 <_dtoa_r+0x250>
    452c:	e59f33a0 	ldr	r3, [pc, #928]	; 48d4 <_dtoa_r+0x5cc>
    4530:	e0833189 	add	r3, r3, r9, lsl #3
    4534:	e8930003 	ldm	r3, {r0, r1}
    4538:	e28d3010 	add	r3, sp, #16
    453c:	e893000c 	ldm	r3, {r2, r3}
    4540:	ebfff388 	bl	1368 <__aeabi_dcmpgt>
    4544:	e3500000 	cmp	r0, #0
    4548:	13a0c000 	movne	r12, #0
    454c:	158dc04c 	strne	r12, [sp, #76]	; 0x4c
    4550:	058d004c 	streq	r0, [sp, #76]	; 0x4c
    4554:	12499001 	subne	r9, r9, #1
    4558:	e0677008 	rsb	r7, r7, r8
    455c:	e2577001 	subs	r7, r7, #1
    4560:	42677000 	rsbmi	r7, r7, #0
    4564:	43a0c000 	movmi	r12, #0
    4568:	53a04000 	movpl	r4, #0
    456c:	458d702c 	strmi	r7, [sp, #44]	; 0x2c
    4570:	458dc028 	strmi	r12, [sp, #40]	; 0x28
    4574:	558d7028 	strpl	r7, [sp, #40]	; 0x28
    4578:	558d402c 	strpl	r4, [sp, #44]	; 0x2c
    457c:	e3590000 	cmp	r9, #0
    4580:	ba000184 	blt	4b98 <_dtoa_r+0x890>
    4584:	e59dc028 	ldr	r12, [sp, #40]	; 0x28
    4588:	e3a04000 	mov	r4, #0
    458c:	e08cc009 	add	r12, r12, r9
    4590:	e58dc028 	str	r12, [sp, #40]	; 0x28
    4594:	e58d9048 	str	r9, [sp, #72]	; 0x48
    4598:	e58d403c 	str	r4, [sp, #60]	; 0x3c
    459c:	e59d40a0 	ldr	r4, [sp, #160]	; 0xa0
    45a0:	e3540009 	cmp	r4, #9
    45a4:	8a000022 	bhi	4634 <_dtoa_r+0x32c>
    45a8:	e3540005 	cmp	r4, #5
    45ac:	c2444004 	subgt	r4, r4, #4
    45b0:	c58d40a0 	strgt	r4, [sp, #160]	; 0xa0
    45b4:	e59dc0a0 	ldr	r12, [sp, #160]	; 0xa0
    45b8:	e24c3002 	sub	r3, r12, #2
    45bc:	c3a04000 	movgt	r4, #0
    45c0:	d3a04001 	movle	r4, #1
    45c4:	e3530003 	cmp	r3, #3
    45c8:	979ff103 	ldrls	pc, [pc, r3, lsl #2]
    45cc:	ea00001a 	b	463c <_dtoa_r+0x334>
    45d0:	00004c70 	.word	0x00004c70
    45d4:	00005008 	.word	0x00005008
    45d8:	00004ffc 	.word	0x00004ffc
    45dc:	00004fc8 	.word	0x00004fc8
    45e0:	e3ca44ff 	bic	r4, r10, #-16777216	; 0xff000000
    45e4:	e3c4460f 	bic	r4, r4, #15728640	; 0xf00000
    45e8:	e59f32c8 	ldr	r3, [pc, #712]	; 48b8 <_dtoa_r+0x5b0>
    45ec:	e59f22cc 	ldr	r2, [pc, #716]	; 48c0 <_dtoa_r+0x5b8>
    45f0:	e3540000 	cmp	r4, #0
    45f4:	01a04002 	moveq	r4, r2
    45f8:	11a04003 	movne	r4, r3
    45fc:	eaffff7e 	b	43fc <_dtoa_r+0xf4>
    4600:	e3c534ff 	bic	r3, r5, #-16777216	; 0xff000000
    4604:	e3c3360f 	bic	r3, r3, #15728640	; 0xf00000
    4608:	e1a00004 	mov	r0, r4
    460c:	e38335ff 	orr	r3, r3, #1069547520	; 0x3fc00000
    4610:	e2477fff 	sub	r7, r7, #1020	; 0x3fc
    4614:	e3a04000 	mov	r4, #0
    4618:	e3831603 	orr	r1, r3, #3145728	; 0x300000
    461c:	e2477003 	sub	r7, r7, #3
    4620:	e59d8070 	ldr	r8, [sp, #112]	; 0x70
    4624:	e58d4060 	str	r4, [sp, #96]	; 0x60
    4628:	eaffff9b 	b	449c <_dtoa_r+0x194>
    462c:	e59f4290 	ldr	r4, [pc, #656]	; 48c4 <_dtoa_r+0x5bc>
    4630:	eaffff66 	b	43d0 <_dtoa_r+0xc8>
    4634:	e3a04000 	mov	r4, #0
    4638:	e58d40a0 	str	r4, [sp, #160]	; 0xa0
    463c:	e3a04000 	mov	r4, #0
    4640:	e5864044 	str	r4, [r6, #68]	; 0x44
    4644:	e1a00006 	mov	r0, r6
    4648:	e1a01004 	mov	r1, r4
    464c:	eb000ac6 	bl	716c <_Balloc>
    4650:	e3e0c000 	mvn	r12, #0
    4654:	e58dc044 	str	r12, [sp, #68]	; 0x44
    4658:	e58dc038 	str	r12, [sp, #56]	; 0x38
    465c:	e3a0c001 	mov	r12, #1
    4660:	e58d0024 	str	r0, [sp, #36]	; 0x24
    4664:	e5860040 	str	r0, [r6, #64]	; 0x40
    4668:	e58dc040 	str	r12, [sp, #64]	; 0x40
    466c:	e58d40a4 	str	r4, [sp, #164]	; 0xa4
    4670:	e59d3074 	ldr	r3, [sp, #116]	; 0x74
    4674:	e3530000 	cmp	r3, #0
    4678:	ba0000ab 	blt	492c <_dtoa_r+0x624>
    467c:	e359000e 	cmp	r9, #14
    4680:	ca0000a9 	bgt	492c <_dtoa_r+0x624>
    4684:	e59d40a4 	ldr	r4, [sp, #164]	; 0xa4
    4688:	e59dc038 	ldr	r12, [sp, #56]	; 0x38
    468c:	e59f3240 	ldr	r3, [pc, #576]	; 48d4 <_dtoa_r+0x5cc>
    4690:	e1a02fa4 	lsr	r2, r4, #31
    4694:	e35c0000 	cmp	r12, #0
    4698:	c3a02000 	movgt	r2, #0
    469c:	d2022001 	andle	r2, r2, #1
    46a0:	e0833189 	add	r3, r3, r9, lsl #3
    46a4:	e3520000 	cmp	r2, #0
    46a8:	e8930006 	ldm	r3, {r1, r2}
    46ac:	e58d1018 	str	r1, [sp, #24]
    46b0:	e58d201c 	str	r2, [sp, #28]
    46b4:	1a000347 	bne	53d8 <_dtoa_r+0x10d0>
    46b8:	e28d5010 	add	r5, sp, #16
    46bc:	e8950030 	ldm	r5, {r4, r5}
    46c0:	e1a03002 	mov	r3, r2
    46c4:	e1a00004 	mov	r0, r4
    46c8:	e1a02001 	mov	r2, r1
    46cc:	e1a01005 	mov	r1, r5
    46d0:	ebfff256 	bl	1030 <__aeabi_ddiv>
    46d4:	eb001976 	bl	acb4 <__aeabi_d2iz>
    46d8:	e1a07000 	mov	r7, r0
    46dc:	ebfff178 	bl	cc4 <__aeabi_i2d>
    46e0:	e28d3018 	add	r3, sp, #24
    46e4:	e893000c 	ldm	r3, {r2, r3}
    46e8:	ebfff1ac 	bl	da0 <__aeabi_dmul>
    46ec:	e1a03001 	mov	r3, r1
    46f0:	e1a02000 	mov	r2, r0
    46f4:	e1a01005 	mov	r1, r5
    46f8:	e1a00004 	mov	r0, r4
    46fc:	ebfff0a2 	bl	98c <__aeabi_dsub>
    4700:	e59dc024 	ldr	r12, [sp, #36]	; 0x24
    4704:	e2873030 	add	r3, r7, #48	; 0x30
    4708:	e4cc3001 	strb	r3, [r12], #1
    470c:	e58dc030 	str	r12, [sp, #48]	; 0x30
    4710:	e59dc038 	ldr	r12, [sp, #56]	; 0x38
    4714:	e35c0001 	cmp	r12, #1
    4718:	e1a04000 	mov	r4, r0
    471c:	e1a05001 	mov	r5, r1
    4720:	e59dc030 	ldr	r12, [sp, #48]	; 0x30
    4724:	0a000039 	beq	4810 <_dtoa_r+0x508>
    4728:	e3a02000 	mov	r2, #0
    472c:	e59f31ac 	ldr	r3, [pc, #428]	; 48e0 <_dtoa_r+0x5d8>
    4730:	ebfff19a 	bl	da0 <__aeabi_dmul>
    4734:	e3a02000 	mov	r2, #0
    4738:	e3a03000 	mov	r3, #0
    473c:	e1a04000 	mov	r4, r0
    4740:	e1a05001 	mov	r5, r1
    4744:	ebfff2ef 	bl	1308 <__aeabi_dcmpeq>
    4748:	e3500000 	cmp	r0, #0
    474c:	1a00047f 	bne	5950 <_dtoa_r+0x1648>
    4750:	e59dc024 	ldr	r12, [sp, #36]	; 0x24
    4754:	e59d1038 	ldr	r1, [sp, #56]	; 0x38
    4758:	e08c8001 	add	r8, r12, r1
    475c:	e58d9020 	str	r9, [sp, #32]
    4760:	e58d8010 	str	r8, [sp, #16]
    4764:	e28ca002 	add	r10, r12, #2
    4768:	e28d9018 	add	r9, sp, #24
    476c:	e8990300 	ldm	r9, {r8, r9}
    4770:	e58d6028 	str	r6, [sp, #40]	; 0x28
    4774:	ea000008 	b	479c <_dtoa_r+0x494>
    4778:	ebfff188 	bl	da0 <__aeabi_dmul>
    477c:	e3a02000 	mov	r2, #0
    4780:	e3a03000 	mov	r3, #0
    4784:	e1a04000 	mov	r4, r0
    4788:	e1a05001 	mov	r5, r1
    478c:	ebfff2dd 	bl	1308 <__aeabi_dcmpeq>
    4790:	e3500000 	cmp	r0, #0
    4794:	e28aa001 	add	r10, r10, #1
    4798:	1a0003af 	bne	565c <_dtoa_r+0x1354>
    479c:	e1a02008 	mov	r2, r8
    47a0:	e1a03009 	mov	r3, r9
    47a4:	e1a00004 	mov	r0, r4
    47a8:	e1a01005 	mov	r1, r5
    47ac:	ebfff21f 	bl	1030 <__aeabi_ddiv>
    47b0:	eb00193f 	bl	acb4 <__aeabi_d2iz>
    47b4:	e1a07000 	mov	r7, r0
    47b8:	ebfff141 	bl	cc4 <__aeabi_i2d>
    47bc:	e1a02008 	mov	r2, r8
    47c0:	e1a03009 	mov	r3, r9
    47c4:	ebfff175 	bl	da0 <__aeabi_dmul>
    47c8:	e1a02000 	mov	r2, r0
    47cc:	e1a03001 	mov	r3, r1
    47d0:	e1a00004 	mov	r0, r4
    47d4:	e1a01005 	mov	r1, r5
    47d8:	ebfff06b 	bl	98c <__aeabi_dsub>
    47dc:	e59dc010 	ldr	r12, [sp, #16]
    47e0:	e15a000c 	cmp	r10, r12
    47e4:	e287c030 	add	r12, r7, #48	; 0x30
    47e8:	e1a04000 	mov	r4, r0
    47ec:	e1a05001 	mov	r5, r1
    47f0:	e3a02000 	mov	r2, #0
    47f4:	e59f30e4 	ldr	r3, [pc, #228]	; 48e0 <_dtoa_r+0x5d8>
    47f8:	e54ac001 	strb	r12, [r10, #-1]
    47fc:	e1a0600a 	mov	r6, r10
    4800:	1affffdc 	bne	4778 <_dtoa_r+0x470>
    4804:	e59d9020 	ldr	r9, [sp, #32]
    4808:	e59d6028 	ldr	r6, [sp, #40]	; 0x28
    480c:	e1a0c00a 	mov	r12, r10
    4810:	e1a02004 	mov	r2, r4
    4814:	e1a03005 	mov	r3, r5
    4818:	e1a00004 	mov	r0, r4
    481c:	e1a01005 	mov	r1, r5
    4820:	e58dc008 	str	r12, [sp, #8]
    4824:	ebfff059 	bl	990 <__adddf3>
    4828:	e1a04000 	mov	r4, r0
    482c:	e1a05001 	mov	r5, r1
    4830:	e1a02004 	mov	r2, r4
    4834:	e28d1018 	add	r1, sp, #24
    4838:	e8910003 	ldm	r1, {r0, r1}
    483c:	e1a03005 	mov	r3, r5
    4840:	ebfff2b6 	bl	1320 <__aeabi_dcmplt>
    4844:	e3500000 	cmp	r0, #0
    4848:	e59dc008 	ldr	r12, [sp, #8]
    484c:	1a00000a 	bne	487c <_dtoa_r+0x574>
    4850:	e28d1018 	add	r1, sp, #24
    4854:	e8910003 	ldm	r1, {r0, r1}
    4858:	e1a02004 	mov	r2, r4
    485c:	e1a03005 	mov	r3, r5
    4860:	e58dc008 	str	r12, [sp, #8]
    4864:	ebfff2a7 	bl	1308 <__aeabi_dcmpeq>
    4868:	e3500000 	cmp	r0, #0
    486c:	e59dc008 	ldr	r12, [sp, #8]
    4870:	0a00037c 	beq	5668 <_dtoa_r+0x1360>
    4874:	e3170001 	tst	r7, #1
    4878:	0a00037a 	beq	5668 <_dtoa_r+0x1360>
    487c:	e55c8001 	ldrb	r8, [r12, #-1]
    4880:	e59d4024 	ldr	r4, [sp, #36]	; 0x24
    4884:	e58d9064 	str	r9, [sp, #100]	; 0x64
    4888:	e1a0900c 	mov	r9, r12
    488c:	e59d1030 	ldr	r1, [sp, #48]	; 0x30
    4890:	ea000017 	b	48f4 <_dtoa_r+0x5ec>
    4894:	e1a00000 	nop			; (mov r0, r0)
    4898:	636f4361 	.word	0x636f4361
    489c:	3fd287a7 	.word	0x3fd287a7
    48a0:	8b60c8b3 	.word	0x8b60c8b3
    48a4:	3fc68a28 	.word	0x3fc68a28
    48a8:	509f79fb 	.word	0x509f79fb
    48ac:	3fd34413 	.word	0x3fd34413
    48b0:	0000bf35 	.word	0x0000bf35
    48b4:	0000270f 	.word	0x0000270f
    48b8:	0000bf44 	.word	0x0000bf44
    48bc:	3ff80000 	.word	0x3ff80000
    48c0:	0000bf38 	.word	0x0000bf38
    48c4:	0000bf34 	.word	0x0000bf34
    48c8:	fffffbee 	.word	0xfffffbee
    48cc:	3ff00000 	.word	0x3ff00000
    48d0:	0000c058 	.word	0x0000c058
    48d4:	0000bf68 	.word	0x0000bf68
    48d8:	40140000 	.word	0x40140000
    48dc:	7ff00000 	.word	0x7ff00000
    48e0:	40240000 	.word	0x40240000
    48e4:	401c0000 	.word	0x401c0000
    48e8:	3fe00000 	.word	0x3fe00000
    48ec:	e5598002 	ldrb	r8, [r9, #-2]
    48f0:	e1a09003 	mov	r9, r3
    48f4:	e3580039 	cmp	r8, #57	; 0x39
    48f8:	e1a02009 	mov	r2, r9
    48fc:	e2493001 	sub	r3, r9, #1
    4900:	1a0003c2 	bne	5810 <_dtoa_r+0x1508>
    4904:	e1590001 	cmp	r9, r1
    4908:	1afffff7 	bne	48ec <_dtoa_r+0x5e4>
    490c:	e58d2024 	str	r2, [sp, #36]	; 0x24
    4910:	e59dc064 	ldr	r12, [sp, #100]	; 0x64
    4914:	e3a02030 	mov	r2, #48	; 0x30
    4918:	e5c32000 	strb	r2, [r3]
    491c:	e28c9001 	add	r9, r12, #1
    4920:	e3a08031 	mov	r8, #49	; 0x31
    4924:	e5c38000 	strb	r8, [r3]
    4928:	ea00008b 	b	4b5c <_dtoa_r+0x854>
    492c:	e59d4040 	ldr	r4, [sp, #64]	; 0x40
    4930:	e3540000 	cmp	r4, #0
    4934:	1a0000ac 	bne	4bec <_dtoa_r+0x8e4>
    4938:	e59d503c 	ldr	r5, [sp, #60]	; 0x3c
    493c:	e59d402c 	ldr	r4, [sp, #44]	; 0x2c
    4940:	e59da040 	ldr	r10, [sp, #64]	; 0x40
    4944:	e59dc028 	ldr	r12, [sp, #40]	; 0x28
    4948:	e35c0000 	cmp	r12, #0
    494c:	c3540000 	cmpgt	r4, #0
    4950:	da000009 	ble	497c <_dtoa_r+0x674>
    4954:	e1a0300c 	mov	r3, r12
    4958:	e59dc02c 	ldr	r12, [sp, #44]	; 0x2c
    495c:	e1530004 	cmp	r3, r4
    4960:	a1a03004 	movge	r3, r4
    4964:	e063c00c 	rsb	r12, r3, r12
    4968:	e58dc02c 	str	r12, [sp, #44]	; 0x2c
    496c:	e59dc028 	ldr	r12, [sp, #40]	; 0x28
    4970:	e063c00c 	rsb	r12, r3, r12
    4974:	e58dc028 	str	r12, [sp, #40]	; 0x28
    4978:	e0634004 	rsb	r4, r3, r4
    497c:	e59dc03c 	ldr	r12, [sp, #60]	; 0x3c
    4980:	e35c0000 	cmp	r12, #0
    4984:	da000015 	ble	49e0 <_dtoa_r+0x6d8>
    4988:	e59dc040 	ldr	r12, [sp, #64]	; 0x40
    498c:	e35c0000 	cmp	r12, #0
    4990:	0a00032b 	beq	5644 <_dtoa_r+0x133c>
    4994:	e3550000 	cmp	r5, #0
    4998:	da00000d 	ble	49d4 <_dtoa_r+0x6cc>
    499c:	e1a0100a 	mov	r1, r10
    49a0:	e1a02005 	mov	r2, r5
    49a4:	e1a00006 	mov	r0, r6
    49a8:	eb000b47 	bl	76cc <__pow5mult>
    49ac:	e1a0a000 	mov	r10, r0
    49b0:	e1a0200b 	mov	r2, r11
    49b4:	e1a0100a 	mov	r1, r10
    49b8:	e1a00006 	mov	r0, r6
    49bc:	eb000ac9 	bl	74e8 <__multiply>
    49c0:	e1a0100b 	mov	r1, r11
    49c4:	e1a07000 	mov	r7, r0
    49c8:	e1a00006 	mov	r0, r6
    49cc:	eb000a09 	bl	71f8 <_Bfree>
    49d0:	e1a0b007 	mov	r11, r7
    49d4:	e59dc03c 	ldr	r12, [sp, #60]	; 0x3c
    49d8:	e05c2005 	subs	r2, r12, r5
    49dc:	1a00035d 	bne	5758 <_dtoa_r+0x1450>
    49e0:	e1a00006 	mov	r0, r6
    49e4:	e3a01001 	mov	r1, #1
    49e8:	eb000ab5 	bl	74c4 <__i2b>
    49ec:	e59dc048 	ldr	r12, [sp, #72]	; 0x48
    49f0:	e35c0000 	cmp	r12, #0
    49f4:	e1a07000 	mov	r7, r0
    49f8:	da000004 	ble	4a10 <_dtoa_r+0x708>
    49fc:	e1a01007 	mov	r1, r7
    4a00:	e1a00006 	mov	r0, r6
    4a04:	e1a0200c 	mov	r2, r12
    4a08:	eb000b2f 	bl	76cc <__pow5mult>
    4a0c:	e1a07000 	mov	r7, r0
    4a10:	e59dc0a0 	ldr	r12, [sp, #160]	; 0xa0
    4a14:	e35c0001 	cmp	r12, #1
    4a18:	da00027e 	ble	5418 <_dtoa_r+0x1110>
    4a1c:	e3a05000 	mov	r5, #0
    4a20:	e59dc048 	ldr	r12, [sp, #72]	; 0x48
    4a24:	e35c0000 	cmp	r12, #0
    4a28:	03a00001 	moveq	r0, #1
    4a2c:	1a000247 	bne	5350 <_dtoa_r+0x1048>
    4a30:	e59dc028 	ldr	r12, [sp, #40]	; 0x28
    4a34:	e080300c 	add	r3, r0, r12
    4a38:	e213301f 	ands	r3, r3, #31
    4a3c:	0a0001d4 	beq	5194 <_dtoa_r+0xe8c>
    4a40:	e2632020 	rsb	r2, r3, #32
    4a44:	e3520004 	cmp	r2, #4
    4a48:	da0003dc 	ble	59c0 <_dtoa_r+0x16b8>
    4a4c:	e263301c 	rsb	r3, r3, #28
    4a50:	e59dc02c 	ldr	r12, [sp, #44]	; 0x2c
    4a54:	e08cc003 	add	r12, r12, r3
    4a58:	e58dc02c 	str	r12, [sp, #44]	; 0x2c
    4a5c:	e59dc028 	ldr	r12, [sp, #40]	; 0x28
    4a60:	e08cc003 	add	r12, r12, r3
    4a64:	e58dc028 	str	r12, [sp, #40]	; 0x28
    4a68:	e0844003 	add	r4, r4, r3
    4a6c:	e59dc02c 	ldr	r12, [sp, #44]	; 0x2c
    4a70:	e35c0000 	cmp	r12, #0
    4a74:	da000004 	ble	4a8c <_dtoa_r+0x784>
    4a78:	e1a0100b 	mov	r1, r11
    4a7c:	e1a00006 	mov	r0, r6
    4a80:	e1a0200c 	mov	r2, r12
    4a84:	eb000b4d 	bl	77c0 <__lshift>
    4a88:	e1a0b000 	mov	r11, r0
    4a8c:	e59dc028 	ldr	r12, [sp, #40]	; 0x28
    4a90:	e35c0000 	cmp	r12, #0
    4a94:	da000004 	ble	4aac <_dtoa_r+0x7a4>
    4a98:	e1a01007 	mov	r1, r7
    4a9c:	e1a00006 	mov	r0, r6
    4aa0:	e1a0200c 	mov	r2, r12
    4aa4:	eb000b45 	bl	77c0 <__lshift>
    4aa8:	e1a07000 	mov	r7, r0
    4aac:	e59dc04c 	ldr	r12, [sp, #76]	; 0x4c
    4ab0:	e35c0000 	cmp	r12, #0
    4ab4:	1a00022b 	bne	5368 <_dtoa_r+0x1060>
    4ab8:	e59dc0a0 	ldr	r12, [sp, #160]	; 0xa0
    4abc:	e59d1038 	ldr	r1, [sp, #56]	; 0x38
    4ac0:	e35c0002 	cmp	r12, #2
    4ac4:	d3a03000 	movle	r3, #0
    4ac8:	c3a03001 	movgt	r3, #1
    4acc:	e3510000 	cmp	r1, #0
    4ad0:	c3a03000 	movgt	r3, #0
    4ad4:	e3530000 	cmp	r3, #0
    4ad8:	0a000170 	beq	50a0 <_dtoa_r+0xd98>
    4adc:	e59d4038 	ldr	r4, [sp, #56]	; 0x38
    4ae0:	e3540000 	cmp	r4, #0
    4ae4:	1a000168 	bne	508c <_dtoa_r+0xd84>
    4ae8:	e1a01007 	mov	r1, r7
    4aec:	e3a02005 	mov	r2, #5
    4af0:	e1a03004 	mov	r3, r4
    4af4:	e1a00006 	mov	r0, r6
    4af8:	eb0009c5 	bl	7214 <__multadd>
    4afc:	e1a07000 	mov	r7, r0
    4b00:	e1a01007 	mov	r1, r7
    4b04:	e1a0000b 	mov	r0, r11
    4b08:	eb000b6d 	bl	78c4 <__mcmp>
    4b0c:	e3500000 	cmp	r0, #0
    4b10:	da00015d 	ble	508c <_dtoa_r+0xd84>
    4b14:	e59d3024 	ldr	r3, [sp, #36]	; 0x24
    4b18:	e3a02031 	mov	r2, #49	; 0x31
    4b1c:	e4c32001 	strb	r2, [r3], #1
    4b20:	e59d4024 	ldr	r4, [sp, #36]	; 0x24
    4b24:	e58d3024 	str	r3, [sp, #36]	; 0x24
    4b28:	e2899001 	add	r9, r9, #1
    4b2c:	e3a05000 	mov	r5, #0
    4b30:	e1a00006 	mov	r0, r6
    4b34:	e1a01007 	mov	r1, r7
    4b38:	eb0009ae 	bl	71f8 <_Bfree>
    4b3c:	e35a0000 	cmp	r10, #0
    4b40:	0a000005 	beq	4b5c <_dtoa_r+0x854>
    4b44:	e155000a 	cmp	r5, r10
    4b48:	13550000 	cmpne	r5, #0
    4b4c:	1a000198 	bne	51b4 <_dtoa_r+0xeac>
    4b50:	e1a00006 	mov	r0, r6
    4b54:	e1a0100a 	mov	r1, r10
    4b58:	eb0009a6 	bl	71f8 <_Bfree>
    4b5c:	e1a00006 	mov	r0, r6
    4b60:	e1a0100b 	mov	r1, r11
    4b64:	eb0009a3 	bl	71f8 <_Bfree>
    4b68:	e59dc0b0 	ldr	r12, [sp, #176]	; 0xb0
    4b6c:	e35c0000 	cmp	r12, #0
    4b70:	e59dc024 	ldr	r12, [sp, #36]	; 0x24
    4b74:	e3a02000 	mov	r2, #0
    4b78:	e5cc2000 	strb	r2, [r12]
    4b7c:	e59dc0a8 	ldr	r12, [sp, #168]	; 0xa8
    4b80:	e2893001 	add	r3, r9, #1
    4b84:	e58c3000 	str	r3, [r12]
    4b88:	159dc024 	ldrne	r12, [sp, #36]	; 0x24
    4b8c:	159d10b0 	ldrne	r1, [sp, #176]	; 0xb0
    4b90:	1581c000 	strne	r12, [r1]
    4b94:	eafffe0d 	b	43d0 <_dtoa_r+0xc8>
    4b98:	e59dc02c 	ldr	r12, [sp, #44]	; 0x2c
    4b9c:	e069c00c 	rsb	r12, r9, r12
    4ba0:	e58dc02c 	str	r12, [sp, #44]	; 0x2c
    4ba4:	e2694000 	rsb	r4, r9, #0
    4ba8:	e3a0c000 	mov	r12, #0
    4bac:	e58d403c 	str	r4, [sp, #60]	; 0x3c
    4bb0:	e58dc048 	str	r12, [sp, #72]	; 0x48
    4bb4:	eafffe78 	b	459c <_dtoa_r+0x294>
    4bb8:	e1a00009 	mov	r0, r9
    4bbc:	ebfff040 	bl	cc4 <__aeabi_i2d>
    4bc0:	e1a02004 	mov	r2, r4
    4bc4:	e1a03005 	mov	r3, r5
    4bc8:	ebfff1ce 	bl	1308 <__aeabi_dcmpeq>
    4bcc:	e3500000 	cmp	r0, #0
    4bd0:	02499001 	subeq	r9, r9, #1
    4bd4:	eafffe50 	b	451c <_dtoa_r+0x214>
    4bd8:	e51f0318 	ldr	r0, [pc, #-792]	; 48c8 <_dtoa_r+0x5c0>
    4bdc:	e59d1010 	ldr	r1, [sp, #16]
    4be0:	e0670000 	rsb	r0, r7, r0
    4be4:	e1a00011 	lsl	r0, r1, r0
    4be8:	eafffe26 	b	4488 <_dtoa_r+0x180>
    4bec:	e59dc0a0 	ldr	r12, [sp, #160]	; 0xa0
    4bf0:	e35c0001 	cmp	r12, #1
    4bf4:	da0002dc 	ble	576c <_dtoa_r+0x1464>
    4bf8:	e59dc038 	ldr	r12, [sp, #56]	; 0x38
    4bfc:	e59d403c 	ldr	r4, [sp, #60]	; 0x3c
    4c00:	e24c5001 	sub	r5, r12, #1
    4c04:	e1540005 	cmp	r4, r5
    4c08:	b59dc03c 	ldrlt	r12, [sp, #60]	; 0x3c
    4c0c:	b59d4048 	ldrlt	r4, [sp, #72]	; 0x48
    4c10:	b06c3005 	rsblt	r3, r12, r5
    4c14:	e59dc038 	ldr	r12, [sp, #56]	; 0x38
    4c18:	b0844003 	addlt	r4, r4, r3
    4c1c:	a0655004 	rsbge	r5, r5, r4
    4c20:	b58d4048 	strlt	r4, [sp, #72]	; 0x48
    4c24:	b58d503c 	strlt	r5, [sp, #60]	; 0x3c
    4c28:	b3a05000 	movlt	r5, #0
    4c2c:	e35c0000 	cmp	r12, #0
    4c30:	b59d102c 	ldrlt	r1, [sp, #44]	; 0x2c
    4c34:	a59d402c 	ldrge	r4, [sp, #44]	; 0x2c
    4c38:	a59d3038 	ldrge	r3, [sp, #56]	; 0x38
    4c3c:	b06c4001 	rsblt	r4, r12, r1
    4c40:	b3a03000 	movlt	r3, #0
    4c44:	e59dc02c 	ldr	r12, [sp, #44]	; 0x2c
    4c48:	e08cc003 	add	r12, r12, r3
    4c4c:	e58dc02c 	str	r12, [sp, #44]	; 0x2c
    4c50:	e59dc028 	ldr	r12, [sp, #40]	; 0x28
    4c54:	e1a00006 	mov	r0, r6
    4c58:	e08cc003 	add	r12, r12, r3
    4c5c:	e3a01001 	mov	r1, #1
    4c60:	e58dc028 	str	r12, [sp, #40]	; 0x28
    4c64:	eb000a16 	bl	74c4 <__i2b>
    4c68:	e1a0a000 	mov	r10, r0
    4c6c:	eaffff34 	b	4944 <_dtoa_r+0x63c>
    4c70:	e3a0c000 	mov	r12, #0
    4c74:	e58dc040 	str	r12, [sp, #64]	; 0x40
    4c78:	e59d10a4 	ldr	r1, [sp, #164]	; 0xa4
    4c7c:	e3510000 	cmp	r1, #0
    4c80:	da000262 	ble	5610 <_dtoa_r+0x1308>
    4c84:	e58d1044 	str	r1, [sp, #68]	; 0x44
    4c88:	e58d1038 	str	r1, [sp, #56]	; 0x38
    4c8c:	e1a08001 	mov	r8, r1
    4c90:	e351000e 	cmp	r1, #14
    4c94:	83a04000 	movhi	r4, #0
    4c98:	92044001 	andls	r4, r4, #1
    4c9c:	e3a01000 	mov	r1, #0
    4ca0:	e3580017 	cmp	r8, #23
    4ca4:	e5861044 	str	r1, [r6, #68]	; 0x44
    4ca8:	9a000008 	bls	4cd0 <_dtoa_r+0x9c8>
    4cac:	e3a02001 	mov	r2, #1
    4cb0:	e3a03004 	mov	r3, #4
    4cb4:	e1a03083 	lsl	r3, r3, #1
    4cb8:	e2830014 	add	r0, r3, #20
    4cbc:	e1500008 	cmp	r0, r8
    4cc0:	e1a01002 	mov	r1, r2
    4cc4:	e2822001 	add	r2, r2, #1
    4cc8:	9afffff9 	bls	4cb4 <_dtoa_r+0x9ac>
    4ccc:	e5861044 	str	r1, [r6, #68]	; 0x44
    4cd0:	e1a00006 	mov	r0, r6
    4cd4:	eb000924 	bl	716c <_Balloc>
    4cd8:	e3540000 	cmp	r4, #0
    4cdc:	e58d0024 	str	r0, [sp, #36]	; 0x24
    4ce0:	e5860040 	str	r0, [r6, #64]	; 0x40
    4ce4:	0afffe61 	beq	4670 <_dtoa_r+0x368>
    4ce8:	e3590000 	cmp	r9, #0
    4cec:	da000134 	ble	51c4 <_dtoa_r+0xebc>
    4cf0:	e51f2424 	ldr	r2, [pc, #-1060]	; 48d4 <_dtoa_r+0x5cc>
    4cf4:	e209300f 	and	r3, r9, #15
    4cf8:	e1a07249 	asr	r7, r9, #4
    4cfc:	e0823183 	add	r3, r2, r3, lsl #3
    4d00:	e3170010 	tst	r7, #16
    4d04:	e8930030 	ldm	r3, {r4, r5}
    4d08:	0a000123 	beq	519c <_dtoa_r+0xe94>
    4d0c:	e51f3444 	ldr	r3, [pc, #-1092]	; 48d0 <_dtoa_r+0x5c8>
    4d10:	e28d1010 	add	r1, sp, #16
    4d14:	e8910003 	ldm	r1, {r0, r1}
    4d18:	e2833020 	add	r3, r3, #32
    4d1c:	e893000c 	ldm	r3, {r2, r3}
    4d20:	ebfff0c2 	bl	1030 <__aeabi_ddiv>
    4d24:	e58d0030 	str	r0, [sp, #48]	; 0x30
    4d28:	e58d1034 	str	r1, [sp, #52]	; 0x34
    4d2c:	e207700f 	and	r7, r7, #15
    4d30:	e3a08003 	mov	r8, #3
    4d34:	e3570000 	cmp	r7, #0
    4d38:	0a00000c 	beq	4d70 <_dtoa_r+0xa68>
    4d3c:	e51fa474 	ldr	r10, [pc, #-1140]	; 48d0 <_dtoa_r+0x5c8>
    4d40:	e1a00004 	mov	r0, r4
    4d44:	e1a01005 	mov	r1, r5
    4d48:	e3170001 	tst	r7, #1
    4d4c:	0a000002 	beq	4d5c <_dtoa_r+0xa54>
    4d50:	e89a000c 	ldm	r10, {r2, r3}
    4d54:	ebfff011 	bl	da0 <__aeabi_dmul>
    4d58:	e2888001 	add	r8, r8, #1
    4d5c:	e1b070c7 	asrs	r7, r7, #1
    4d60:	e28aa008 	add	r10, r10, #8
    4d64:	1afffff7 	bne	4d48 <_dtoa_r+0xa40>
    4d68:	e1a04000 	mov	r4, r0
    4d6c:	e1a05001 	mov	r5, r1
    4d70:	e28d1030 	add	r1, sp, #48	; 0x30
    4d74:	e8910003 	ldm	r1, {r0, r1}
    4d78:	e1a02004 	mov	r2, r4
    4d7c:	e1a03005 	mov	r3, r5
    4d80:	ebfff0aa 	bl	1030 <__aeabi_ddiv>
    4d84:	e58d0030 	str	r0, [sp, #48]	; 0x30
    4d88:	e58d1034 	str	r1, [sp, #52]	; 0x34
    4d8c:	e59d404c 	ldr	r4, [sp, #76]	; 0x4c
    4d90:	e3540000 	cmp	r4, #0
    4d94:	0a000006 	beq	4db4 <_dtoa_r+0xaac>
    4d98:	e28d1030 	add	r1, sp, #48	; 0x30
    4d9c:	e8910003 	ldm	r1, {r0, r1}
    4da0:	e3a02000 	mov	r2, #0
    4da4:	e51f34e0 	ldr	r3, [pc, #-1248]	; 48cc <_dtoa_r+0x5c4>
    4da8:	ebfff15c 	bl	1320 <__aeabi_dcmplt>
    4dac:	e3500000 	cmp	r0, #0
    4db0:	1a000235 	bne	568c <_dtoa_r+0x1384>
    4db4:	e1a00008 	mov	r0, r8
    4db8:	ebffefc1 	bl	cc4 <__aeabi_i2d>
    4dbc:	e28d3030 	add	r3, sp, #48	; 0x30
    4dc0:	e893000c 	ldm	r3, {r2, r3}
    4dc4:	ebffeff5 	bl	da0 <__aeabi_dmul>
    4dc8:	e3a02000 	mov	r2, #0
    4dcc:	e51f34f0 	ldr	r3, [pc, #-1264]	; 48e4 <_dtoa_r+0x5dc>
    4dd0:	ebffeeee 	bl	990 <__adddf3>
    4dd4:	e59dc038 	ldr	r12, [sp, #56]	; 0x38
    4dd8:	e35c0000 	cmp	r12, #0
    4ddc:	e1a04000 	mov	r4, r0
    4de0:	e241550d 	sub	r5, r1, #54525952	; 0x3400000
    4de4:	0a000094 	beq	503c <_dtoa_r+0xd34>
    4de8:	e58d9064 	str	r9, [sp, #100]	; 0x64
    4dec:	e59da038 	ldr	r10, [sp, #56]	; 0x38
    4df0:	e59dc040 	ldr	r12, [sp, #64]	; 0x40
    4df4:	e35c0000 	cmp	r12, #0
    4df8:	0a00010f 	beq	523c <_dtoa_r+0xf34>
    4dfc:	e51f3530 	ldr	r3, [pc, #-1328]	; 48d4 <_dtoa_r+0x5cc>
    4e00:	e083318a 	add	r3, r3, r10, lsl #3
    4e04:	e913000c 	ldmdb	r3, {r2, r3}
    4e08:	e3a00000 	mov	r0, #0
    4e0c:	e51f152c 	ldr	r1, [pc, #-1324]	; 48e8 <_dtoa_r+0x5e0>
    4e10:	ebfff086 	bl	1030 <__aeabi_ddiv>
    4e14:	e1a02004 	mov	r2, r4
    4e18:	e1a03005 	mov	r3, r5
    4e1c:	ebffeeda 	bl	98c <__aeabi_dsub>
    4e20:	e58d0050 	str	r0, [sp, #80]	; 0x50
    4e24:	e58d1054 	str	r1, [sp, #84]	; 0x54
    4e28:	e28d1030 	add	r1, sp, #48	; 0x30
    4e2c:	e8910003 	ldm	r1, {r0, r1}
    4e30:	eb00179f 	bl	acb4 <__aeabi_d2iz>
    4e34:	e1a07000 	mov	r7, r0
    4e38:	ebffefa1 	bl	cc4 <__aeabi_i2d>
    4e3c:	e1a02000 	mov	r2, r0
    4e40:	e1a03001 	mov	r3, r1
    4e44:	e28d1030 	add	r1, sp, #48	; 0x30
    4e48:	e8910003 	ldm	r1, {r0, r1}
    4e4c:	ebffeece 	bl	98c <__aeabi_dsub>
    4e50:	e2877030 	add	r7, r7, #48	; 0x30
    4e54:	e59dc024 	ldr	r12, [sp, #36]	; 0x24
    4e58:	e20780ff 	and	r8, r7, #255	; 0xff
    4e5c:	e4cc8001 	strb	r8, [r12], #1
    4e60:	e1a04000 	mov	r4, r0
    4e64:	e1a05001 	mov	r5, r1
    4e68:	e1a02004 	mov	r2, r4
    4e6c:	e28d1050 	add	r1, sp, #80	; 0x50
    4e70:	e8910003 	ldm	r1, {r0, r1}
    4e74:	e1a03005 	mov	r3, r5
    4e78:	e58dc030 	str	r12, [sp, #48]	; 0x30
    4e7c:	ebfff139 	bl	1368 <__aeabi_dcmpgt>
    4e80:	e3500000 	cmp	r0, #0
    4e84:	e59dc030 	ldr	r12, [sp, #48]	; 0x30
    4e88:	1a0002c7 	bne	59ac <_dtoa_r+0x16a4>
    4e8c:	e1a02004 	mov	r2, r4
    4e90:	e1a03005 	mov	r3, r5
    4e94:	e3a00000 	mov	r0, #0
    4e98:	e51f15d4 	ldr	r1, [pc, #-1492]	; 48cc <_dtoa_r+0x5c4>
    4e9c:	e58dc008 	str	r12, [sp, #8]
    4ea0:	ebffeeb9 	bl	98c <__aeabi_dsub>
    4ea4:	e1a02000 	mov	r2, r0
    4ea8:	e1a03001 	mov	r3, r1
    4eac:	e28d1050 	add	r1, sp, #80	; 0x50
    4eb0:	e8910003 	ldm	r1, {r0, r1}
    4eb4:	ebfff12b 	bl	1368 <__aeabi_dcmpgt>
    4eb8:	e3500000 	cmp	r0, #0
    4ebc:	e59dc008 	ldr	r12, [sp, #8]
    4ec0:	1a000250 	bne	5808 <_dtoa_r+0x1500>
    4ec4:	e35a0001 	cmp	r10, #1
    4ec8:	dafffde8 	ble	4670 <_dtoa_r+0x368>
    4ecc:	e59dc024 	ldr	r12, [sp, #36]	; 0x24
    4ed0:	e59d7030 	ldr	r7, [sp, #48]	; 0x30
    4ed4:	e08ca00a 	add	r10, r12, r10
    4ed8:	e58d906c 	str	r9, [sp, #108]	; 0x6c
    4edc:	e58d6068 	str	r6, [sp, #104]	; 0x68
    4ee0:	e1a0900a 	mov	r9, r10
    4ee4:	e58db058 	str	r11, [sp, #88]	; 0x58
    4ee8:	e1a0a007 	mov	r10, r7
    4eec:	e28d7050 	add	r7, sp, #80	; 0x50
    4ef0:	e89700c0 	ldm	r7, {r6, r7}
    4ef4:	ea000007 	b	4f18 <_dtoa_r+0xc10>
    4ef8:	ebffeea3 	bl	98c <__aeabi_dsub>
    4efc:	e1a02006 	mov	r2, r6
    4f00:	e1a03007 	mov	r3, r7
    4f04:	ebfff105 	bl	1320 <__aeabi_dcmplt>
    4f08:	e3500000 	cmp	r0, #0
    4f0c:	1a00023a 	bne	57fc <_dtoa_r+0x14f4>
    4f10:	e15a0009 	cmp	r10, r9
    4f14:	0a000241 	beq	5820 <_dtoa_r+0x1518>
    4f18:	e3a02000 	mov	r2, #0
    4f1c:	e51f3644 	ldr	r3, [pc, #-1604]	; 48e0 <_dtoa_r+0x5d8>
    4f20:	e1a00006 	mov	r0, r6
    4f24:	e1a01007 	mov	r1, r7
    4f28:	ebffef9c 	bl	da0 <__aeabi_dmul>
    4f2c:	e3a02000 	mov	r2, #0
    4f30:	e51f3658 	ldr	r3, [pc, #-1624]	; 48e0 <_dtoa_r+0x5d8>
    4f34:	e1a06000 	mov	r6, r0
    4f38:	e1a07001 	mov	r7, r1
    4f3c:	e1a00004 	mov	r0, r4
    4f40:	e1a01005 	mov	r1, r5
    4f44:	ebffef95 	bl	da0 <__aeabi_dmul>
    4f48:	e1a05001 	mov	r5, r1
    4f4c:	e1a04000 	mov	r4, r0
    4f50:	eb001757 	bl	acb4 <__aeabi_d2iz>
    4f54:	e1a08000 	mov	r8, r0
    4f58:	ebffef59 	bl	cc4 <__aeabi_i2d>
    4f5c:	e1a02000 	mov	r2, r0
    4f60:	e1a03001 	mov	r3, r1
    4f64:	e1a00004 	mov	r0, r4
    4f68:	e1a01005 	mov	r1, r5
    4f6c:	ebffee86 	bl	98c <__aeabi_dsub>
    4f70:	e2888030 	add	r8, r8, #48	; 0x30
    4f74:	e20880ff 	and	r8, r8, #255	; 0xff
    4f78:	e4ca8001 	strb	r8, [r10], #1
    4f7c:	e1a02006 	mov	r2, r6
    4f80:	e1a03007 	mov	r3, r7
    4f84:	e1a05001 	mov	r5, r1
    4f88:	e1a04000 	mov	r4, r0
    4f8c:	ebfff0e3 	bl	1320 <__aeabi_dcmplt>
    4f90:	e3500000 	cmp	r0, #0
    4f94:	e1a02004 	mov	r2, r4
    4f98:	e1a03005 	mov	r3, r5
    4f9c:	e3a00000 	mov	r0, #0
    4fa0:	e51f16dc 	ldr	r1, [pc, #-1756]	; 48cc <_dtoa_r+0x5c4>
    4fa4:	e1a0b00a 	mov	r11, r10
    4fa8:	0affffd2 	beq	4ef8 <_dtoa_r+0xbf0>
    4fac:	e59d4024 	ldr	r4, [sp, #36]	; 0x24
    4fb0:	e1a0700a 	mov	r7, r10
    4fb4:	e59db058 	ldr	r11, [sp, #88]	; 0x58
    4fb8:	e59d6068 	ldr	r6, [sp, #104]	; 0x68
    4fbc:	e59d9064 	ldr	r9, [sp, #100]	; 0x64
    4fc0:	e58da024 	str	r10, [sp, #36]	; 0x24
    4fc4:	eafffee4 	b	4b5c <_dtoa_r+0x854>
    4fc8:	e3a0c001 	mov	r12, #1
    4fcc:	e58dc040 	str	r12, [sp, #64]	; 0x40
    4fd0:	e59dc0a4 	ldr	r12, [sp, #164]	; 0xa4
    4fd4:	e08cc009 	add	r12, r12, r9
    4fd8:	e28c8001 	add	r8, r12, #1
    4fdc:	e3580000 	cmp	r8, #0
    4fe0:	e58dc044 	str	r12, [sp, #68]	; 0x44
    4fe4:	da000191 	ble	5630 <_dtoa_r+0x1328>
    4fe8:	e358000e 	cmp	r8, #14
    4fec:	83a04000 	movhi	r4, #0
    4ff0:	92044001 	andls	r4, r4, #1
    4ff4:	e58d8038 	str	r8, [sp, #56]	; 0x38
    4ff8:	eaffff27 	b	4c9c <_dtoa_r+0x994>
    4ffc:	e3a0c001 	mov	r12, #1
    5000:	e58dc040 	str	r12, [sp, #64]	; 0x40
    5004:	eaffff1b 	b	4c78 <_dtoa_r+0x970>
    5008:	e3a0c000 	mov	r12, #0
    500c:	e58dc040 	str	r12, [sp, #64]	; 0x40
    5010:	eaffffee 	b	4fd0 <_dtoa_r+0xcc8>
    5014:	e1a00008 	mov	r0, r8
    5018:	ebffef29 	bl	cc4 <__aeabi_i2d>
    501c:	e28d3030 	add	r3, sp, #48	; 0x30
    5020:	e893000c 	ldm	r3, {r2, r3}
    5024:	ebffef5d 	bl	da0 <__aeabi_dmul>
    5028:	e3a02000 	mov	r2, #0
    502c:	e51f3750 	ldr	r3, [pc, #-1872]	; 48e4 <_dtoa_r+0x5dc>
    5030:	ebffee56 	bl	990 <__adddf3>
    5034:	e1a04000 	mov	r4, r0
    5038:	e241550d 	sub	r5, r1, #54525952	; 0x3400000
    503c:	e3a02000 	mov	r2, #0
    5040:	e51f3770 	ldr	r3, [pc, #-1904]	; 48d8 <_dtoa_r+0x5d0>
    5044:	e28d1030 	add	r1, sp, #48	; 0x30
    5048:	e8910003 	ldm	r1, {r0, r1}
    504c:	ebffee4e 	bl	98c <__aeabi_dsub>
    5050:	e1a02004 	mov	r2, r4
    5054:	e1a03005 	mov	r3, r5
    5058:	e1a07000 	mov	r7, r0
    505c:	e1a08001 	mov	r8, r1
    5060:	ebfff0c0 	bl	1368 <__aeabi_dcmpgt>
    5064:	e250a000 	subs	r10, r0, #0
    5068:	1a000070 	bne	5230 <_dtoa_r+0xf28>
    506c:	e1a02004 	mov	r2, r4
    5070:	e2853102 	add	r3, r5, #-2147483648	; 0x80000000
    5074:	e1a00007 	mov	r0, r7
    5078:	e1a01008 	mov	r1, r8
    507c:	ebfff0a7 	bl	1320 <__aeabi_dcmplt>
    5080:	e3500000 	cmp	r0, #0
    5084:	0afffd79 	beq	4670 <_dtoa_r+0x368>
    5088:	e1a0700a 	mov	r7, r10
    508c:	e59dc0a4 	ldr	r12, [sp, #164]	; 0xa4
    5090:	e59d4024 	ldr	r4, [sp, #36]	; 0x24
    5094:	e1e0900c 	mvn	r9, r12
    5098:	e3a05000 	mov	r5, #0
    509c:	eafffea3 	b	4b30 <_dtoa_r+0x828>
    50a0:	e59dc040 	ldr	r12, [sp, #64]	; 0x40
    50a4:	e35c0000 	cmp	r12, #0
    50a8:	1a0000ee 	bne	5468 <_dtoa_r+0x1160>
    50ac:	e3a04000 	mov	r4, #0
    50b0:	e59d5038 	ldr	r5, [sp, #56]	; 0x38
    50b4:	e59d8024 	ldr	r8, [sp, #36]	; 0x24
    50b8:	ea000005 	b	50d4 <_dtoa_r+0xdcc>
    50bc:	e1a0100b 	mov	r1, r11
    50c0:	e1a00006 	mov	r0, r6
    50c4:	e3a0200a 	mov	r2, #10
    50c8:	e3a03000 	mov	r3, #0
    50cc:	eb000850 	bl	7214 <__multadd>
    50d0:	e1a0b000 	mov	r11, r0
    50d4:	e1a01007 	mov	r1, r7
    50d8:	e1a0000b 	mov	r0, r11
    50dc:	ebfffc11 	bl	4128 <quorem>
    50e0:	e2800030 	add	r0, r0, #48	; 0x30
    50e4:	e7c80004 	strb	r0, [r8, r4]
    50e8:	e2844001 	add	r4, r4, #1
    50ec:	e1540005 	cmp	r4, r5
    50f0:	bafffff1 	blt	50bc <_dtoa_r+0xdb4>
    50f4:	e59dc024 	ldr	r12, [sp, #36]	; 0x24
    50f8:	e59d4038 	ldr	r4, [sp, #56]	; 0x38
    50fc:	e1a03000 	mov	r3, r0
    5100:	e3540001 	cmp	r4, #1
    5104:	a08cc004 	addge	r12, r12, r4
    5108:	b28cc001 	addlt	r12, r12, #1
    510c:	e3a05000 	mov	r5, #0
    5110:	e1a0100b 	mov	r1, r11
    5114:	e3a02001 	mov	r2, #1
    5118:	e1a00006 	mov	r0, r6
    511c:	e58d300c 	str	r3, [sp, #12]
    5120:	e58dc008 	str	r12, [sp, #8]
    5124:	eb0009a5 	bl	77c0 <__lshift>
    5128:	e1a01007 	mov	r1, r7
    512c:	e1a0b000 	mov	r11, r0
    5130:	eb0009e3 	bl	78c4 <__mcmp>
    5134:	e3500000 	cmp	r0, #0
    5138:	e59d300c 	ldr	r3, [sp, #12]
    513c:	e59dc008 	ldr	r12, [sp, #8]
    5140:	da0001ba 	ble	5830 <_dtoa_r+0x1528>
    5144:	e59d4024 	ldr	r4, [sp, #36]	; 0x24
    5148:	e2844001 	add	r4, r4, #1
    514c:	e55c3001 	ldrb	r3, [r12, #-1]
    5150:	e58d4030 	str	r4, [sp, #48]	; 0x30
    5154:	e1a0100c 	mov	r1, r12
    5158:	e59d0030 	ldr	r0, [sp, #48]	; 0x30
    515c:	ea000001 	b	5168 <_dtoa_r+0xe60>
    5160:	e5513002 	ldrb	r3, [r1, #-2]
    5164:	e1a01002 	mov	r1, r2
    5168:	e3530039 	cmp	r3, #57	; 0x39
    516c:	e2412001 	sub	r2, r1, #1
    5170:	1a0001cd 	bne	58ac <_dtoa_r+0x15a4>
    5174:	e1510000 	cmp	r1, r0
    5178:	1afffff8 	bne	5160 <_dtoa_r+0xe58>
    517c:	e3a03031 	mov	r3, #49	; 0x31
    5180:	e59d4024 	ldr	r4, [sp, #36]	; 0x24
    5184:	e2899001 	add	r9, r9, #1
    5188:	e5c23000 	strb	r3, [r2]
    518c:	e58d1024 	str	r1, [sp, #36]	; 0x24
    5190:	eafffe66 	b	4b30 <_dtoa_r+0x828>
    5194:	e3a0301c 	mov	r3, #28
    5198:	eafffe2c 	b	4a50 <_dtoa_r+0x748>
    519c:	e28d3010 	add	r3, sp, #16
    51a0:	e893000c 	ldm	r3, {r2, r3}
    51a4:	e3a08002 	mov	r8, #2
    51a8:	e58d2030 	str	r2, [sp, #48]	; 0x30
    51ac:	e58d3034 	str	r3, [sp, #52]	; 0x34
    51b0:	eafffedf 	b	4d34 <_dtoa_r+0xa2c>
    51b4:	e1a00006 	mov	r0, r6
    51b8:	e1a01005 	mov	r1, r5
    51bc:	eb00080d 	bl	71f8 <_Bfree>
    51c0:	eafffe62 	b	4b50 <_dtoa_r+0x848>
    51c4:	e2694000 	rsb	r4, r9, #0
    51c8:	e3540000 	cmp	r4, #0
    51cc:	0a000128 	beq	5674 <_dtoa_r+0x136c>
    51d0:	e51f3904 	ldr	r3, [pc, #-2308]	; 48d4 <_dtoa_r+0x5cc>
    51d4:	e204200f 	and	r2, r4, #15
    51d8:	e0833182 	add	r3, r3, r2, lsl #3
    51dc:	e28d1010 	add	r1, sp, #16
    51e0:	e8910003 	ldm	r1, {r0, r1}
    51e4:	e893000c 	ldm	r3, {r2, r3}
    51e8:	ebffeeec 	bl	da0 <__aeabi_dmul>
    51ec:	e1b04244 	asrs	r4, r4, #4
    51f0:	e58d0030 	str	r0, [sp, #48]	; 0x30
    51f4:	e58d1034 	str	r1, [sp, #52]	; 0x34
    51f8:	0a0001d2 	beq	5948 <_dtoa_r+0x1640>
    51fc:	e51f5934 	ldr	r5, [pc, #-2356]	; 48d0 <_dtoa_r+0x5c8>
    5200:	e3a08002 	mov	r8, #2
    5204:	e3140001 	tst	r4, #1
    5208:	0a000002 	beq	5218 <_dtoa_r+0xf10>
    520c:	e895000c 	ldm	r5, {r2, r3}
    5210:	ebffeee2 	bl	da0 <__aeabi_dmul>
    5214:	e2888001 	add	r8, r8, #1
    5218:	e1b040c4 	asrs	r4, r4, #1
    521c:	e2855008 	add	r5, r5, #8
    5220:	1afffff7 	bne	5204 <_dtoa_r+0xefc>
    5224:	e58d0030 	str	r0, [sp, #48]	; 0x30
    5228:	e58d1034 	str	r1, [sp, #52]	; 0x34
    522c:	eafffed6 	b	4d8c <_dtoa_r+0xa84>
    5230:	e3a07000 	mov	r7, #0
    5234:	e1a0a007 	mov	r10, r7
    5238:	eafffe35 	b	4b14 <_dtoa_r+0x80c>
    523c:	e51f1970 	ldr	r1, [pc, #-2416]	; 48d4 <_dtoa_r+0x5cc>
    5240:	e24ac001 	sub	r12, r10, #1
    5244:	e081118c 	add	r1, r1, r12, lsl #3
    5248:	e1a02004 	mov	r2, r4
    524c:	e1a03005 	mov	r3, r5
    5250:	e8910003 	ldm	r1, {r0, r1}
    5254:	e58dc050 	str	r12, [sp, #80]	; 0x50
    5258:	ebffeed0 	bl	da0 <__aeabi_dmul>
    525c:	e58d0058 	str	r0, [sp, #88]	; 0x58
    5260:	e58d105c 	str	r1, [sp, #92]	; 0x5c
    5264:	e28d1030 	add	r1, sp, #48	; 0x30
    5268:	e8910003 	ldm	r1, {r0, r1}
    526c:	eb001690 	bl	acb4 <__aeabi_d2iz>
    5270:	e1a07000 	mov	r7, r0
    5274:	ebffee92 	bl	cc4 <__aeabi_i2d>
    5278:	e1a02000 	mov	r2, r0
    527c:	e1a03001 	mov	r3, r1
    5280:	e28d1030 	add	r1, sp, #48	; 0x30
    5284:	e8910003 	ldm	r1, {r0, r1}
    5288:	ebffedbf 	bl	98c <__aeabi_dsub>
    528c:	e59dc024 	ldr	r12, [sp, #36]	; 0x24
    5290:	e2877030 	add	r7, r7, #48	; 0x30
    5294:	e4cc7001 	strb	r7, [r12], #1
    5298:	e35a0001 	cmp	r10, #1
    529c:	e1a04000 	mov	r4, r0
    52a0:	e1a05001 	mov	r5, r1
    52a4:	e58dc030 	str	r12, [sp, #48]	; 0x30
    52a8:	0a000019 	beq	5314 <_dtoa_r+0x100c>
    52ac:	e59dc024 	ldr	r12, [sp, #36]	; 0x24
    52b0:	e24c3001 	sub	r3, r12, #1
    52b4:	e1a0700c 	mov	r7, r12
    52b8:	e083a00a 	add	r10, r3, r10
    52bc:	e3a02000 	mov	r2, #0
    52c0:	e51f39e8 	ldr	r3, [pc, #-2536]	; 48e0 <_dtoa_r+0x5d8>
    52c4:	ebffeeb5 	bl	da0 <__aeabi_dmul>
    52c8:	e1a05001 	mov	r5, r1
    52cc:	e1a04000 	mov	r4, r0
    52d0:	eb001677 	bl	acb4 <__aeabi_d2iz>
    52d4:	e1a08000 	mov	r8, r0
    52d8:	ebffee79 	bl	cc4 <__aeabi_i2d>
    52dc:	e2888030 	add	r8, r8, #48	; 0x30
    52e0:	e1a02000 	mov	r2, r0
    52e4:	e1a03001 	mov	r3, r1
    52e8:	e1a00004 	mov	r0, r4
    52ec:	e1a01005 	mov	r1, r5
    52f0:	ebffeda5 	bl	98c <__aeabi_dsub>
    52f4:	e5e78001 	strb	r8, [r7, #1]!
    52f8:	e157000a 	cmp	r7, r10
    52fc:	1affffee 	bne	52bc <_dtoa_r+0xfb4>
    5300:	e1a05001 	mov	r5, r1
    5304:	e59d2050 	ldr	r2, [sp, #80]	; 0x50
    5308:	e59d1030 	ldr	r1, [sp, #48]	; 0x30
    530c:	e1a04000 	mov	r4, r0
    5310:	e081c002 	add	r12, r1, r2
    5314:	e3a02000 	mov	r2, #0
    5318:	e51f3a38 	ldr	r3, [pc, #-2616]	; 48e8 <_dtoa_r+0x5e0>
    531c:	e28d1058 	add	r1, sp, #88	; 0x58
    5320:	e8910003 	ldm	r1, {r0, r1}
    5324:	e58dc008 	str	r12, [sp, #8]
    5328:	ebffed98 	bl	990 <__adddf3>
    532c:	e1a02004 	mov	r2, r4
    5330:	e1a03005 	mov	r3, r5
    5334:	ebffeff9 	bl	1320 <__aeabi_dcmplt>
    5338:	e3500000 	cmp	r0, #0
    533c:	e59dc008 	ldr	r12, [sp, #8]
    5340:	0a0000ee 	beq	5700 <_dtoa_r+0x13f8>
    5344:	e55c8001 	ldrb	r8, [r12, #-1]
    5348:	e59d4024 	ldr	r4, [sp, #36]	; 0x24
    534c:	eafffd4d 	b	4888 <_dtoa_r+0x580>
    5350:	e5973010 	ldr	r3, [r7, #16]
    5354:	e0873103 	add	r3, r7, r3, lsl #2
    5358:	e5930010 	ldr	r0, [r3, #16]
    535c:	eb00081f 	bl	73e0 <__hi0bits>
    5360:	e2600020 	rsb	r0, r0, #32
    5364:	eafffdb1 	b	4a30 <_dtoa_r+0x728>
    5368:	e1a0000b 	mov	r0, r11
    536c:	e1a01007 	mov	r1, r7
    5370:	eb000953 	bl	78c4 <__mcmp>
    5374:	e3500000 	cmp	r0, #0
    5378:	aafffdce 	bge	4ab8 <_dtoa_r+0x7b0>
    537c:	e1a0100b 	mov	r1, r11
    5380:	e1a00006 	mov	r0, r6
    5384:	e3a0200a 	mov	r2, #10
    5388:	e3a03000 	mov	r3, #0
    538c:	eb0007a0 	bl	7214 <__multadd>
    5390:	e59dc040 	ldr	r12, [sp, #64]	; 0x40
    5394:	e35c0000 	cmp	r12, #0
    5398:	e1a0b000 	mov	r11, r0
    539c:	e2499001 	sub	r9, r9, #1
    53a0:	1a00016e 	bne	5960 <_dtoa_r+0x1658>
    53a4:	e59d4044 	ldr	r4, [sp, #68]	; 0x44
    53a8:	e59dc0a0 	ldr	r12, [sp, #160]	; 0xa0
    53ac:	e3540000 	cmp	r4, #0
    53b0:	c3a03000 	movgt	r3, #0
    53b4:	d3a03001 	movle	r3, #1
    53b8:	e35c0002 	cmp	r12, #2
    53bc:	d3a03000 	movle	r3, #0
    53c0:	e3530000 	cmp	r3, #0
    53c4:	058d4038 	streq	r4, [sp, #56]	; 0x38
    53c8:	0affff37 	beq	50ac <_dtoa_r+0xda4>
    53cc:	e59dc044 	ldr	r12, [sp, #68]	; 0x44
    53d0:	e58dc038 	str	r12, [sp, #56]	; 0x38
    53d4:	eafffdc0 	b	4adc <_dtoa_r+0x7d4>
    53d8:	e59d4038 	ldr	r4, [sp, #56]	; 0x38
    53dc:	e3540000 	cmp	r4, #0
    53e0:	1a00011e 	bne	5860 <_dtoa_r+0x1558>
    53e4:	e3a02000 	mov	r2, #0
    53e8:	e51f3b18 	ldr	r3, [pc, #-2840]	; 48d8 <_dtoa_r+0x5d0>
    53ec:	e28d1018 	add	r1, sp, #24
    53f0:	e8910003 	ldm	r1, {r0, r1}
    53f4:	ebffee69 	bl	da0 <__aeabi_dmul>
    53f8:	e28d3010 	add	r3, sp, #16
    53fc:	e893000c 	ldm	r3, {r2, r3}
    5400:	ebffefd2 	bl	1350 <__aeabi_dcmpge>
    5404:	e59d7038 	ldr	r7, [sp, #56]	; 0x38
    5408:	e3500000 	cmp	r0, #0
    540c:	e1a0a007 	mov	r10, r7
    5410:	1affff1d 	bne	508c <_dtoa_r+0xd84>
    5414:	eafffdbe 	b	4b14 <_dtoa_r+0x80c>
    5418:	e59d1010 	ldr	r1, [sp, #16]
    541c:	e3510000 	cmp	r1, #0
    5420:	1afffd7d 	bne	4a1c <_dtoa_r+0x714>
    5424:	e59d3014 	ldr	r3, [sp, #20]
    5428:	e3c324ff 	bic	r2, r3, #-16777216	; 0xff000000
    542c:	e3c2260f 	bic	r2, r2, #15728640	; 0xf00000
    5430:	e3520000 	cmp	r2, #0
    5434:	1a000121 	bne	58c0 <_dtoa_r+0x15b8>
    5438:	e51f5b64 	ldr	r5, [pc, #-2916]	; 48dc <_dtoa_r+0x5d4>
    543c:	e0035005 	and	r5, r3, r5
    5440:	e3550000 	cmp	r5, #0
    5444:	0afffd75 	beq	4a20 <_dtoa_r+0x718>
    5448:	e59dc02c 	ldr	r12, [sp, #44]	; 0x2c
    544c:	e28cc001 	add	r12, r12, #1
    5450:	e58dc02c 	str	r12, [sp, #44]	; 0x2c
    5454:	e59dc028 	ldr	r12, [sp, #40]	; 0x28
    5458:	e28cc001 	add	r12, r12, #1
    545c:	e58dc028 	str	r12, [sp, #40]	; 0x28
    5460:	e3a05001 	mov	r5, #1
    5464:	eafffd6d 	b	4a20 <_dtoa_r+0x718>
    5468:	e3540000 	cmp	r4, #0
    546c:	da000004 	ble	5484 <_dtoa_r+0x117c>
    5470:	e1a0100a 	mov	r1, r10
    5474:	e1a00006 	mov	r0, r6
    5478:	e1a02004 	mov	r2, r4
    547c:	eb0008cf 	bl	77c0 <__lshift>
    5480:	e1a0a000 	mov	r10, r0
    5484:	e3550000 	cmp	r5, #0
    5488:	01a0800a 	moveq	r8, r10
    548c:	1a0000f6 	bne	586c <_dtoa_r+0x1564>
    5490:	e59d1038 	ldr	r1, [sp, #56]	; 0x38
    5494:	e59dc024 	ldr	r12, [sp, #36]	; 0x24
    5498:	e08cc001 	add	r12, r12, r1
    549c:	e59d4024 	ldr	r4, [sp, #36]	; 0x24
    54a0:	e58dc02c 	str	r12, [sp, #44]	; 0x2c
    54a4:	e59dc010 	ldr	r12, [sp, #16]
    54a8:	e2844001 	add	r4, r4, #1
    54ac:	e20cc001 	and	r12, r12, #1
    54b0:	e58d4030 	str	r4, [sp, #48]	; 0x30
    54b4:	e1a0500a 	mov	r5, r10
    54b8:	e58dc020 	str	r12, [sp, #32]
    54bc:	e58d9038 	str	r9, [sp, #56]	; 0x38
    54c0:	ea00002e 	b	5580 <_dtoa_r+0x1278>
    54c4:	e1a00006 	mov	r0, r6
    54c8:	e1a01003 	mov	r1, r3
    54cc:	e58d200c 	str	r2, [sp, #12]
    54d0:	eb000748 	bl	71f8 <_Bfree>
    54d4:	e59d200c 	ldr	r2, [sp, #12]
    54d8:	e59dc0a0 	ldr	r12, [sp, #160]	; 0xa0
    54dc:	e192c00c 	orrs	r12, r2, r12
    54e0:	1a000002 	bne	54f0 <_dtoa_r+0x11e8>
    54e4:	e59dc020 	ldr	r12, [sp, #32]
    54e8:	e35c0000 	cmp	r12, #0
    54ec:	0a000109 	beq	5918 <_dtoa_r+0x1610>
    54f0:	e35a0000 	cmp	r10, #0
    54f4:	ba0000a6 	blt	5794 <_dtoa_r+0x148c>
    54f8:	e59dc0a0 	ldr	r12, [sp, #160]	; 0xa0
    54fc:	e19ac00c 	orrs	r12, r10, r12
    5500:	1a000002 	bne	5510 <_dtoa_r+0x1208>
    5504:	e59dc020 	ldr	r12, [sp, #32]
    5508:	e35c0000 	cmp	r12, #0
    550c:	0a0000a0 	beq	5794 <_dtoa_r+0x148c>
    5510:	e3520000 	cmp	r2, #0
    5514:	ca0000eb 	bgt	58c8 <_dtoa_r+0x15c0>
    5518:	e59dc02c 	ldr	r12, [sp, #44]	; 0x2c
    551c:	e154000c 	cmp	r4, r12
    5520:	e5449001 	strb	r9, [r4, #-1]
    5524:	e1a0c004 	mov	r12, r4
    5528:	0a0000f1 	beq	58f4 <_dtoa_r+0x15ec>
    552c:	e1a0100b 	mov	r1, r11
    5530:	e1a00006 	mov	r0, r6
    5534:	e3a0200a 	mov	r2, #10
    5538:	e3a03000 	mov	r3, #0
    553c:	eb000734 	bl	7214 <__multadd>
    5540:	e1550008 	cmp	r5, r8
    5544:	e1a0b000 	mov	r11, r0
    5548:	0a000028 	beq	55f0 <_dtoa_r+0x12e8>
    554c:	e1a01005 	mov	r1, r5
    5550:	e3a0200a 	mov	r2, #10
    5554:	e3a03000 	mov	r3, #0
    5558:	e1a00006 	mov	r0, r6
    555c:	eb00072c 	bl	7214 <__multadd>
    5560:	e1a01008 	mov	r1, r8
    5564:	e1a05000 	mov	r5, r0
    5568:	e3a0200a 	mov	r2, #10
    556c:	e1a00006 	mov	r0, r6
    5570:	e3a03000 	mov	r3, #0
    5574:	eb000726 	bl	7214 <__multadd>
    5578:	e1a08000 	mov	r8, r0
    557c:	e2844001 	add	r4, r4, #1
    5580:	e1a01007 	mov	r1, r7
    5584:	e1a0000b 	mov	r0, r11
    5588:	ebfffae6 	bl	4128 <quorem>
    558c:	e1a01005 	mov	r1, r5
    5590:	e58d0010 	str	r0, [sp, #16]
    5594:	e1a0000b 	mov	r0, r11
    5598:	eb0008c9 	bl	78c4 <__mcmp>
    559c:	e1a02008 	mov	r2, r8
    55a0:	e1a0a000 	mov	r10, r0
    55a4:	e1a01007 	mov	r1, r7
    55a8:	e1a00006 	mov	r0, r6
    55ac:	eb0008dd 	bl	7928 <__mdiff>
    55b0:	e244c001 	sub	r12, r4, #1
    55b4:	e590200c 	ldr	r2, [r0, #12]
    55b8:	e58dc028 	str	r12, [sp, #40]	; 0x28
    55bc:	e59dc010 	ldr	r12, [sp, #16]
    55c0:	e3520000 	cmp	r2, #0
    55c4:	e1a03000 	mov	r3, r0
    55c8:	e28c9030 	add	r9, r12, #48	; 0x30
    55cc:	13a02001 	movne	r2, #1
    55d0:	1affffbb 	bne	54c4 <_dtoa_r+0x11bc>
    55d4:	e1a01003 	mov	r1, r3
    55d8:	e1a0000b 	mov	r0, r11
    55dc:	e58d300c 	str	r3, [sp, #12]
    55e0:	eb0008b7 	bl	78c4 <__mcmp>
    55e4:	e59d300c 	ldr	r3, [sp, #12]
    55e8:	e1a02000 	mov	r2, r0
    55ec:	eaffffb4 	b	54c4 <_dtoa_r+0x11bc>
    55f0:	e1a01005 	mov	r1, r5
    55f4:	e1a00006 	mov	r0, r6
    55f8:	e3a0200a 	mov	r2, #10
    55fc:	e3a03000 	mov	r3, #0
    5600:	eb000703 	bl	7214 <__multadd>
    5604:	e1a05000 	mov	r5, r0
    5608:	e1a08000 	mov	r8, r0
    560c:	eaffffda 	b	557c <_dtoa_r+0x1274>
    5610:	e3a03001 	mov	r3, #1
    5614:	e58d3044 	str	r3, [sp, #68]	; 0x44
    5618:	e58d3038 	str	r3, [sp, #56]	; 0x38
    561c:	e58d30a4 	str	r3, [sp, #164]	; 0xa4
    5620:	e3a01000 	mov	r1, #0
    5624:	e5861044 	str	r1, [r6, #68]	; 0x44
    5628:	e0034004 	and	r4, r3, r4
    562c:	eafffda7 	b	4cd0 <_dtoa_r+0x9c8>
    5630:	e358000e 	cmp	r8, #14
    5634:	83a03000 	movhi	r3, #0
    5638:	93a03001 	movls	r3, #1
    563c:	e58d8038 	str	r8, [sp, #56]	; 0x38
    5640:	eafffff6 	b	5620 <_dtoa_r+0x1318>
    5644:	e1a0100b 	mov	r1, r11
    5648:	e1a00006 	mov	r0, r6
    564c:	e59d203c 	ldr	r2, [sp, #60]	; 0x3c
    5650:	eb00081d 	bl	76cc <__pow5mult>
    5654:	e1a0b000 	mov	r11, r0
    5658:	eafffce0 	b	49e0 <_dtoa_r+0x6d8>
    565c:	e1a0c006 	mov	r12, r6
    5660:	e59d9020 	ldr	r9, [sp, #32]
    5664:	e59d6028 	ldr	r6, [sp, #40]	; 0x28
    5668:	e59d4024 	ldr	r4, [sp, #36]	; 0x24
    566c:	e58dc024 	str	r12, [sp, #36]	; 0x24
    5670:	eafffd39 	b	4b5c <_dtoa_r+0x854>
    5674:	e28d4010 	add	r4, sp, #16
    5678:	e8940018 	ldm	r4, {r3, r4}
    567c:	e3a08002 	mov	r8, #2
    5680:	e58d3030 	str	r3, [sp, #48]	; 0x30
    5684:	e58d4034 	str	r4, [sp, #52]	; 0x34
    5688:	eafffdbf 	b	4d8c <_dtoa_r+0xa84>
    568c:	e59dc038 	ldr	r12, [sp, #56]	; 0x38
    5690:	e35c0000 	cmp	r12, #0
    5694:	0afffe5e 	beq	5014 <_dtoa_r+0xd0c>
    5698:	e59d4044 	ldr	r4, [sp, #68]	; 0x44
    569c:	e3540000 	cmp	r4, #0
    56a0:	dafffbf2 	ble	4670 <_dtoa_r+0x368>
    56a4:	e3a02000 	mov	r2, #0
    56a8:	e51f3dd0 	ldr	r3, [pc, #-3536]	; 48e0 <_dtoa_r+0x5d8>
    56ac:	e28d1030 	add	r1, sp, #48	; 0x30
    56b0:	e8910003 	ldm	r1, {r0, r1}
    56b4:	ebffedb9 	bl	da0 <__aeabi_dmul>
    56b8:	e58d0030 	str	r0, [sp, #48]	; 0x30
    56bc:	e58d1034 	str	r1, [sp, #52]	; 0x34
    56c0:	e2880001 	add	r0, r8, #1
    56c4:	ebffed7e 	bl	cc4 <__aeabi_i2d>
    56c8:	e1a02000 	mov	r2, r0
    56cc:	e1a03001 	mov	r3, r1
    56d0:	e28d1030 	add	r1, sp, #48	; 0x30
    56d4:	e8910003 	ldm	r1, {r0, r1}
    56d8:	ebffedb0 	bl	da0 <__aeabi_dmul>
    56dc:	e3a02000 	mov	r2, #0
    56e0:	e51f3e04 	ldr	r3, [pc, #-3588]	; 48e4 <_dtoa_r+0x5dc>
    56e4:	ebffeca9 	bl	990 <__adddf3>
    56e8:	e249c001 	sub	r12, r9, #1
    56ec:	e1a04000 	mov	r4, r0
    56f0:	e58dc064 	str	r12, [sp, #100]	; 0x64
    56f4:	e241550d 	sub	r5, r1, #54525952	; 0x3400000
    56f8:	e59da044 	ldr	r10, [sp, #68]	; 0x44
    56fc:	eafffdbb 	b	4df0 <_dtoa_r+0xae8>
    5700:	e28d3058 	add	r3, sp, #88	; 0x58
    5704:	e893000c 	ldm	r3, {r2, r3}
    5708:	e3a00000 	mov	r0, #0
    570c:	e51f1e2c 	ldr	r1, [pc, #-3628]	; 48e8 <_dtoa_r+0x5e0>
    5710:	e58dc008 	str	r12, [sp, #8]
    5714:	ebffec9c 	bl	98c <__aeabi_dsub>
    5718:	e1a02004 	mov	r2, r4
    571c:	e1a03005 	mov	r3, r5
    5720:	ebffef10 	bl	1368 <__aeabi_dcmpgt>
    5724:	e3500000 	cmp	r0, #0
    5728:	e59dc008 	ldr	r12, [sp, #8]
    572c:	0afffbcf 	beq	4670 <_dtoa_r+0x368>
    5730:	e1a0900c 	mov	r9, r12
    5734:	e5592001 	ldrb	r2, [r9, #-1]
    5738:	e3520030 	cmp	r2, #48	; 0x30
    573c:	e1a03009 	mov	r3, r9
    5740:	e2499001 	sub	r9, r9, #1
    5744:	0afffffa 	beq	5734 <_dtoa_r+0x142c>
    5748:	e59d4024 	ldr	r4, [sp, #36]	; 0x24
    574c:	e59d9064 	ldr	r9, [sp, #100]	; 0x64
    5750:	e58d3024 	str	r3, [sp, #36]	; 0x24
    5754:	eafffd00 	b	4b5c <_dtoa_r+0x854>
    5758:	e1a0100b 	mov	r1, r11
    575c:	e1a00006 	mov	r0, r6
    5760:	eb0007d9 	bl	76cc <__pow5mult>
    5764:	e1a0b000 	mov	r11, r0
    5768:	eafffc9c 	b	49e0 <_dtoa_r+0x6d8>
    576c:	e59d4060 	ldr	r4, [sp, #96]	; 0x60
    5770:	e3540000 	cmp	r4, #0
    5774:	059d3070 	ldreq	r3, [sp, #112]	; 0x70
    5778:	12833e43 	addne	r3, r3, #1072	; 0x430
    577c:	12833003 	addne	r3, r3, #3
    5780:	159d503c 	ldrne	r5, [sp, #60]	; 0x3c
    5784:	059d503c 	ldreq	r5, [sp, #60]	; 0x3c
    5788:	02633036 	rsbeq	r3, r3, #54	; 0x36
    578c:	e59d402c 	ldr	r4, [sp, #44]	; 0x2c
    5790:	eafffd2b 	b	4c44 <_dtoa_r+0x93c>
    5794:	e1a03009 	mov	r3, r9
    5798:	e3520000 	cmp	r2, #0
    579c:	e59d9038 	ldr	r9, [sp, #56]	; 0x38
    57a0:	e1a04003 	mov	r4, r3
    57a4:	da00000e 	ble	57e4 <_dtoa_r+0x14dc>
    57a8:	e1a0100b 	mov	r1, r11
    57ac:	e3a02001 	mov	r2, #1
    57b0:	e1a00006 	mov	r0, r6
    57b4:	e58d300c 	str	r3, [sp, #12]
    57b8:	eb000800 	bl	77c0 <__lshift>
    57bc:	e1a01007 	mov	r1, r7
    57c0:	e1a0b000 	mov	r11, r0
    57c4:	eb00083e 	bl	78c4 <__mcmp>
    57c8:	e3500000 	cmp	r0, #0
    57cc:	e59d300c 	ldr	r3, [sp, #12]
    57d0:	da000058 	ble	5938 <_dtoa_r+0x1630>
    57d4:	e3540039 	cmp	r4, #57	; 0x39
    57d8:	e59d4010 	ldr	r4, [sp, #16]
    57dc:	e2843031 	add	r3, r4, #49	; 0x31
    57e0:	0a000047 	beq	5904 <_dtoa_r+0x15fc>
    57e4:	e59d2028 	ldr	r2, [sp, #40]	; 0x28
    57e8:	e4c23001 	strb	r3, [r2], #1
    57ec:	e59d4024 	ldr	r4, [sp, #36]	; 0x24
    57f0:	e1a0a008 	mov	r10, r8
    57f4:	e58d2024 	str	r2, [sp, #36]	; 0x24
    57f8:	eafffccc 	b	4b30 <_dtoa_r+0x828>
    57fc:	e1a0c00b 	mov	r12, r11
    5800:	e59d6068 	ldr	r6, [sp, #104]	; 0x68
    5804:	e59db058 	ldr	r11, [sp, #88]	; 0x58
    5808:	e59d4024 	ldr	r4, [sp, #36]	; 0x24
    580c:	eafffc1d 	b	4888 <_dtoa_r+0x580>
    5810:	e58d9024 	str	r9, [sp, #36]	; 0x24
    5814:	e2888001 	add	r8, r8, #1
    5818:	e59d9064 	ldr	r9, [sp, #100]	; 0x64
    581c:	eafffc40 	b	4924 <_dtoa_r+0x61c>
    5820:	e59d906c 	ldr	r9, [sp, #108]	; 0x6c
    5824:	e59db058 	ldr	r11, [sp, #88]	; 0x58
    5828:	e59d6068 	ldr	r6, [sp, #104]	; 0x68
    582c:	eafffb8f 	b	4670 <_dtoa_r+0x368>
    5830:	1a000001 	bne	583c <_dtoa_r+0x1534>
    5834:	e3130001 	tst	r3, #1
    5838:	1afffe41 	bne	5144 <_dtoa_r+0xe3c>
    583c:	e1a0100c 	mov	r1, r12
    5840:	e5512001 	ldrb	r2, [r1, #-1]
    5844:	e3520030 	cmp	r2, #48	; 0x30
    5848:	e1a03001 	mov	r3, r1
    584c:	e2411001 	sub	r1, r1, #1
    5850:	0afffffa 	beq	5840 <_dtoa_r+0x1538>
    5854:	e59d4024 	ldr	r4, [sp, #36]	; 0x24
    5858:	e58d3024 	str	r3, [sp, #36]	; 0x24
    585c:	eafffcb3 	b	4b30 <_dtoa_r+0x828>
    5860:	e3a07000 	mov	r7, #0
    5864:	e1a0a007 	mov	r10, r7
    5868:	eafffe07 	b	508c <_dtoa_r+0xd84>
    586c:	e59a1004 	ldr	r1, [r10, #4]
    5870:	e1a00006 	mov	r0, r6
    5874:	eb00063c 	bl	716c <_Balloc>
    5878:	e59a2010 	ldr	r2, [r10, #16]
    587c:	e2822002 	add	r2, r2, #2
    5880:	e1a04000 	mov	r4, r0
    5884:	e1a02102 	lsl	r2, r2, #2
    5888:	e28a100c 	add	r1, r10, #12
    588c:	e280000c 	add	r0, r0, #12
    5890:	eb000563 	bl	6e24 <memcpy>
    5894:	e1a00006 	mov	r0, r6
    5898:	e1a01004 	mov	r1, r4
    589c:	e3a02001 	mov	r2, #1
    58a0:	eb0007c6 	bl	77c0 <__lshift>
    58a4:	e1a08000 	mov	r8, r0
    58a8:	eafffef8 	b	5490 <_dtoa_r+0x1188>
    58ac:	e2833001 	add	r3, r3, #1
    58b0:	e59d4024 	ldr	r4, [sp, #36]	; 0x24
    58b4:	e5c23000 	strb	r3, [r2]
    58b8:	e58d1024 	str	r1, [sp, #36]	; 0x24
    58bc:	eafffc9b 	b	4b30 <_dtoa_r+0x828>
    58c0:	e59d5010 	ldr	r5, [sp, #16]
    58c4:	eafffc55 	b	4a20 <_dtoa_r+0x718>
    58c8:	e1a03009 	mov	r3, r9
    58cc:	e3530039 	cmp	r3, #57	; 0x39
    58d0:	e59d9038 	ldr	r9, [sp, #56]	; 0x38
    58d4:	0a00000a 	beq	5904 <_dtoa_r+0x15fc>
    58d8:	e59d2028 	ldr	r2, [sp, #40]	; 0x28
    58dc:	e2833001 	add	r3, r3, #1
    58e0:	e4c23001 	strb	r3, [r2], #1
    58e4:	e59d4024 	ldr	r4, [sp, #36]	; 0x24
    58e8:	e1a0a008 	mov	r10, r8
    58ec:	e58d2024 	str	r2, [sp, #36]	; 0x24
    58f0:	eafffc8e 	b	4b30 <_dtoa_r+0x828>
    58f4:	e1a03009 	mov	r3, r9
    58f8:	e1a0a008 	mov	r10, r8
    58fc:	e59d9038 	ldr	r9, [sp, #56]	; 0x38
    5900:	eafffe02 	b	5110 <_dtoa_r+0xe08>
    5904:	e59dc028 	ldr	r12, [sp, #40]	; 0x28
    5908:	e3a03039 	mov	r3, #57	; 0x39
    590c:	e4cc3001 	strb	r3, [r12], #1
    5910:	e1a0a008 	mov	r10, r8
    5914:	eafffe0e 	b	5154 <_dtoa_r+0xe4c>
    5918:	e1a03009 	mov	r3, r9
    591c:	e3530039 	cmp	r3, #57	; 0x39
    5920:	e59d9038 	ldr	r9, [sp, #56]	; 0x38
    5924:	0afffff6 	beq	5904 <_dtoa_r+0x15fc>
    5928:	e35a0000 	cmp	r10, #0
    592c:	c59d4010 	ldrgt	r4, [sp, #16]
    5930:	c2843031 	addgt	r3, r4, #49	; 0x31
    5934:	eaffffaa 	b	57e4 <_dtoa_r+0x14dc>
    5938:	1affffa9 	bne	57e4 <_dtoa_r+0x14dc>
    593c:	e3130001 	tst	r3, #1
    5940:	0affffa7 	beq	57e4 <_dtoa_r+0x14dc>
    5944:	eaffffa2 	b	57d4 <_dtoa_r+0x14cc>
    5948:	e3a08002 	mov	r8, #2
    594c:	eafffd0e 	b	4d8c <_dtoa_r+0xa84>
    5950:	e59dc030 	ldr	r12, [sp, #48]	; 0x30
    5954:	e59d4024 	ldr	r4, [sp, #36]	; 0x24
    5958:	e58dc024 	str	r12, [sp, #36]	; 0x24
    595c:	eafffc7e 	b	4b5c <_dtoa_r+0x854>
    5960:	e3a03000 	mov	r3, #0
    5964:	e1a0100a 	mov	r1, r10
    5968:	e1a00006 	mov	r0, r6
    596c:	e3a0200a 	mov	r2, #10
    5970:	eb000627 	bl	7214 <__multadd>
    5974:	e59dc044 	ldr	r12, [sp, #68]	; 0x44
    5978:	e59d10a0 	ldr	r1, [sp, #160]	; 0xa0
    597c:	e35c0000 	cmp	r12, #0
    5980:	c3a03000 	movgt	r3, #0
    5984:	d3a03001 	movle	r3, #1
    5988:	e3510002 	cmp	r1, #2
    598c:	d3a03000 	movle	r3, #0
    5990:	e3530000 	cmp	r3, #0
    5994:	e1a0a000 	mov	r10, r0
    5998:	058dc038 	streq	r12, [sp, #56]	; 0x38
    599c:	0afffeb1 	beq	5468 <_dtoa_r+0x1160>
    59a0:	e59d4044 	ldr	r4, [sp, #68]	; 0x44
    59a4:	e58d4038 	str	r4, [sp, #56]	; 0x38
    59a8:	eafffc4b 	b	4adc <_dtoa_r+0x7d4>
    59ac:	e59dc030 	ldr	r12, [sp, #48]	; 0x30
    59b0:	e59d4024 	ldr	r4, [sp, #36]	; 0x24
    59b4:	e59d9064 	ldr	r9, [sp, #100]	; 0x64
    59b8:	e58dc024 	str	r12, [sp, #36]	; 0x24
    59bc:	eafffc66 	b	4b5c <_dtoa_r+0x854>
    59c0:	1263303c 	rsbne	r3, r3, #60	; 0x3c
    59c4:	0afffc28 	beq	4a6c <_dtoa_r+0x764>
    59c8:	eafffc20 	b	4a50 <_dtoa_r+0x748>
    59cc:	e1a00000 	nop			; (mov r0, r0)

000059d0 <_fflush_r>:
    59d0:	e92d40f8 	push	{r3, r4, r5, r6, r7, lr}
    59d4:	e2507000 	subs	r7, r0, #0
    59d8:	e1a04001 	mov	r4, r1
    59dc:	0a000002 	beq	59ec <_fflush_r+0x1c>
    59e0:	e5973038 	ldr	r3, [r7, #56]	; 0x38
    59e4:	e3530000 	cmp	r3, #0
    59e8:	0a000059 	beq	5b54 <_fflush_r+0x184>
    59ec:	e1d420bc 	ldrh	r2, [r4, #12]
    59f0:	e3520000 	cmp	r2, #0
    59f4:	0a000023 	beq	5a88 <_fflush_r+0xb8>
    59f8:	e3120008 	tst	r2, #8
    59fc:	0a000024 	beq	5a94 <_fflush_r+0xc4>
    5a00:	e5946010 	ldr	r6, [r4, #16]
    5a04:	e3560000 	cmp	r6, #0
    5a08:	0a00001e 	beq	5a88 <_fflush_r+0xb8>
    5a0c:	e5945000 	ldr	r5, [r4]
    5a10:	e3120003 	tst	r2, #3
    5a14:	05943014 	ldreq	r3, [r4, #20]
    5a18:	e0665005 	rsb	r5, r6, r5
    5a1c:	13a03000 	movne	r3, #0
    5a20:	e3550000 	cmp	r5, #0
    5a24:	e5846000 	str	r6, [r4]
    5a28:	e5843008 	str	r3, [r4, #8]
    5a2c:	ca000003 	bgt	5a40 <_fflush_r+0x70>
    5a30:	ea000014 	b	5a88 <_fflush_r+0xb8>
    5a34:	e3550000 	cmp	r5, #0
    5a38:	e0866000 	add	r6, r6, r0
    5a3c:	da000011 	ble	5a88 <_fflush_r+0xb8>
    5a40:	e1a03005 	mov	r3, r5
    5a44:	e1a02006 	mov	r2, r6
    5a48:	e1a00007 	mov	r0, r7
    5a4c:	e594101c 	ldr	r1, [r4, #28]
    5a50:	e594c024 	ldr	r12, [r4, #36]	; 0x24
    5a54:	e1a0e00f 	mov	lr, pc
    5a58:	e12fff1c 	bx	r12
    5a5c:	e3500000 	cmp	r0, #0
    5a60:	e0605005 	rsb	r5, r0, r5
    5a64:	cafffff2 	bgt	5a34 <_fflush_r+0x64>
    5a68:	e1d430bc 	ldrh	r3, [r4, #12]
    5a6c:	e3833040 	orr	r3, r3, #64	; 0x40
    5a70:	e1c430bc 	strh	r3, [r4, #12]
    5a74:	e3e00000 	mvn	r0, #0
    5a78:	ea000003 	b	5a8c <_fflush_r+0xbc>
    5a7c:	e594103c 	ldr	r1, [r4, #60]	; 0x3c
    5a80:	e3510000 	cmp	r1, #0
    5a84:	ca000007 	bgt	5aa8 <_fflush_r+0xd8>
    5a88:	e3a00000 	mov	r0, #0
    5a8c:	e8bd40f8 	pop	{r3, r4, r5, r6, r7, lr}
    5a90:	e12fff1e 	bx	lr
    5a94:	e5941004 	ldr	r1, [r4, #4]
    5a98:	e3823b02 	orr	r3, r2, #2048	; 0x800
    5a9c:	e3510000 	cmp	r1, #0
    5aa0:	e1c430bc 	strh	r3, [r4, #12]
    5aa4:	dafffff4 	ble	5a7c <_fflush_r+0xac>
    5aa8:	e594c028 	ldr	r12, [r4, #40]	; 0x28
    5aac:	e35c0000 	cmp	r12, #0
    5ab0:	0afffff4 	beq	5a88 <_fflush_r+0xb8>
    5ab4:	e3a01000 	mov	r1, #0
    5ab8:	e2126a01 	ands	r6, r2, #4096	; 0x1000
    5abc:	e5975000 	ldr	r5, [r7]
    5ac0:	e5871000 	str	r1, [r7]
    5ac4:	0a000024 	beq	5b5c <_fflush_r+0x18c>
    5ac8:	e5942050 	ldr	r2, [r4, #80]	; 0x50
    5acc:	e3130004 	tst	r3, #4
    5ad0:	0a000005 	beq	5aec <_fflush_r+0x11c>
    5ad4:	e5941030 	ldr	r1, [r4, #48]	; 0x30
    5ad8:	e5943004 	ldr	r3, [r4, #4]
    5adc:	e3510000 	cmp	r1, #0
    5ae0:	e0632002 	rsb	r2, r3, r2
    5ae4:	1594303c 	ldrne	r3, [r4, #60]	; 0x3c
    5ae8:	10632002 	rsbne	r2, r3, r2
    5aec:	e1a00007 	mov	r0, r7
    5af0:	e594101c 	ldr	r1, [r4, #28]
    5af4:	e3a03000 	mov	r3, #0
    5af8:	e1a0e00f 	mov	lr, pc
    5afc:	e12fff1c 	bx	r12
    5b00:	e3700001 	cmn	r0, #1
    5b04:	0a000020 	beq	5b8c <_fflush_r+0x1bc>
    5b08:	e1d430bc 	ldrh	r3, [r4, #12]
    5b0c:	e5942010 	ldr	r2, [r4, #16]
    5b10:	e3c31b02 	bic	r1, r3, #2048	; 0x800
    5b14:	e3130a01 	tst	r3, #4096	; 0x1000
    5b18:	e3a03000 	mov	r3, #0
    5b1c:	e1c410bc 	strh	r1, [r4, #12]
    5b20:	e884000c 	stm	r4, {r2, r3}
    5b24:	1a000028 	bne	5bcc <_fflush_r+0x1fc>
    5b28:	e5941030 	ldr	r1, [r4, #48]	; 0x30
    5b2c:	e3510000 	cmp	r1, #0
    5b30:	e5875000 	str	r5, [r7]
    5b34:	0affffd3 	beq	5a88 <_fflush_r+0xb8>
    5b38:	e2843040 	add	r3, r4, #64	; 0x40
    5b3c:	e1510003 	cmp	r1, r3
    5b40:	11a00007 	movne	r0, r7
    5b44:	1b00013d 	blne	6040 <_free_r>
    5b48:	e3a00000 	mov	r0, #0
    5b4c:	e5840030 	str	r0, [r4, #48]	; 0x30
    5b50:	eaffffcd 	b	5a8c <_fflush_r+0xbc>
    5b54:	eb000077 	bl	5d38 <__sinit>
    5b58:	eaffffa3 	b	59ec <_fflush_r+0x1c>
    5b5c:	e1a02006 	mov	r2, r6
    5b60:	e1a00007 	mov	r0, r7
    5b64:	e594101c 	ldr	r1, [r4, #28]
    5b68:	e3a03001 	mov	r3, #1
    5b6c:	e1a0e00f 	mov	lr, pc
    5b70:	e12fff1c 	bx	r12
    5b74:	e3700001 	cmn	r0, #1
    5b78:	e1a02000 	mov	r2, r0
    5b7c:	0a000014 	beq	5bd4 <_fflush_r+0x204>
    5b80:	e1d430bc 	ldrh	r3, [r4, #12]
    5b84:	e594c028 	ldr	r12, [r4, #40]	; 0x28
    5b88:	eaffffcf 	b	5acc <_fflush_r+0xfc>
    5b8c:	e597c000 	ldr	r12, [r7]
    5b90:	e35c001d 	cmp	r12, #29
    5b94:	8affffb3 	bhi	5a68 <_fflush_r+0x98>
    5b98:	e59f3058 	ldr	r3, [pc, #88]	; 5bf8 <_fflush_r+0x228>
    5b9c:	e1b03c13 	lsls	r3, r3, r12
    5ba0:	5affffb0 	bpl	5a68 <_fflush_r+0x98>
    5ba4:	e1d430bc 	ldrh	r3, [r4, #12]
    5ba8:	e5942010 	ldr	r2, [r4, #16]
    5bac:	e3c31b02 	bic	r1, r3, #2048	; 0x800
    5bb0:	e3130a01 	tst	r3, #4096	; 0x1000
    5bb4:	e3a03000 	mov	r3, #0
    5bb8:	e1c410bc 	strh	r1, [r4, #12]
    5bbc:	e884000c 	stm	r4, {r2, r3}
    5bc0:	0affffd8 	beq	5b28 <_fflush_r+0x158>
    5bc4:	e35c0000 	cmp	r12, #0
    5bc8:	1affffd6 	bne	5b28 <_fflush_r+0x158>
    5bcc:	e5840050 	str	r0, [r4, #80]	; 0x50
    5bd0:	eaffffd4 	b	5b28 <_fflush_r+0x158>
    5bd4:	e5973000 	ldr	r3, [r7]
    5bd8:	e3530000 	cmp	r3, #0
    5bdc:	0affffe7 	beq	5b80 <_fflush_r+0x1b0>
    5be0:	e353001d 	cmp	r3, #29
    5be4:	13530016 	cmpne	r3, #22
    5be8:	05875000 	streq	r5, [r7]
    5bec:	01a00006 	moveq	r0, r6
    5bf0:	0affffa5 	beq	5a8c <_fflush_r+0xbc>
    5bf4:	eaffff9b 	b	5a68 <_fflush_r+0x98>
    5bf8:	80000204 	.word	0x80000204

00005bfc <fflush>:
    5bfc:	e2501000 	subs	r1, r0, #0
    5c00:	e92d4008 	push	{r3, lr}
    5c04:	0a000003 	beq	5c18 <fflush+0x1c>
    5c08:	e59f3020 	ldr	r3, [pc, #32]	; 5c30 <fflush+0x34>
    5c0c:	e5930000 	ldr	r0, [r3]
    5c10:	e8bd4008 	pop	{r3, lr}
    5c14:	eaffff6d 	b	59d0 <_fflush_r>
    5c18:	e59f3014 	ldr	r3, [pc, #20]	; 5c34 <fflush+0x38>
    5c1c:	e59f1014 	ldr	r1, [pc, #20]	; 5c38 <fflush+0x3c>
    5c20:	e5930000 	ldr	r0, [r3]
    5c24:	eb0001c2 	bl	6334 <_fwalk_reent>
    5c28:	e8bd4008 	pop	{r3, lr}
    5c2c:	e12fff1e 	bx	lr
    5c30:	0000c100 	.word	0x0000c100
    5c34:	0000becc 	.word	0x0000becc
    5c38:	000059d0 	.word	0x000059d0

00005c3c <__fp_lock>:
    5c3c:	e3a00000 	mov	r0, #0
    5c40:	e12fff1e 	bx	lr

00005c44 <__fp_unlock>:
    5c44:	e3a00000 	mov	r0, #0
    5c48:	e12fff1e 	bx	lr

00005c4c <_cleanup_r>:
    5c4c:	e92d4008 	push	{r3, lr}
    5c50:	e59f1008 	ldr	r1, [pc, #8]	; 5c60 <_cleanup_r+0x14>
    5c54:	eb000194 	bl	62ac <_fwalk>
    5c58:	e8bd4008 	pop	{r3, lr}
    5c5c:	e12fff1e 	bx	lr
    5c60:	00009a30 	.word	0x00009a30

00005c64 <std.isra.0>:
    5c64:	e3a03000 	mov	r3, #0
    5c68:	e92d4010 	push	{r4, lr}
    5c6c:	e1a04000 	mov	r4, r0
    5c70:	e1c010bc 	strh	r1, [r0, #12]
    5c74:	e1c020be 	strh	r2, [r0, #14]
    5c78:	e5803000 	str	r3, [r0]
    5c7c:	e5803004 	str	r3, [r0, #4]
    5c80:	e5803008 	str	r3, [r0, #8]
    5c84:	e5803064 	str	r3, [r0, #100]	; 0x64
    5c88:	e5803010 	str	r3, [r0, #16]
    5c8c:	e5803014 	str	r3, [r0, #20]
    5c90:	e5803018 	str	r3, [r0, #24]
    5c94:	e1a01003 	mov	r1, r3
    5c98:	e280005c 	add	r0, r0, #92	; 0x5c
    5c9c:	e3a02008 	mov	r2, #8
    5ca0:	eb0004e2 	bl	7030 <memset>
    5ca4:	e59f3024 	ldr	r3, [pc, #36]	; 5cd0 <std.isra.0+0x6c>
    5ca8:	e5843020 	str	r3, [r4, #32]
    5cac:	e59f3020 	ldr	r3, [pc, #32]	; 5cd4 <std.isra.0+0x70>
    5cb0:	e5843024 	str	r3, [r4, #36]	; 0x24
    5cb4:	e59f301c 	ldr	r3, [pc, #28]	; 5cd8 <std.isra.0+0x74>
    5cb8:	e5843028 	str	r3, [r4, #40]	; 0x28
    5cbc:	e59f3018 	ldr	r3, [pc, #24]	; 5cdc <std.isra.0+0x78>
    5cc0:	e584401c 	str	r4, [r4, #28]
    5cc4:	e584302c 	str	r3, [r4, #44]	; 0x2c
    5cc8:	e8bd4010 	pop	{r4, lr}
    5ccc:	e12fff1e 	bx	lr
    5cd0:	000080a8 	.word	0x000080a8
    5cd4:	000080e4 	.word	0x000080e4
    5cd8:	0000813c 	.word	0x0000813c
    5cdc:	00008170 	.word	0x00008170

00005ce0 <__sfmoreglue>:
    5ce0:	e92d4070 	push	{r4, r5, r6, lr}
    5ce4:	e0816081 	add	r6, r1, r1, lsl #1
    5ce8:	e0816106 	add	r6, r1, r6, lsl #2
    5cec:	e1a06186 	lsl	r6, r6, #3
    5cf0:	e1a05001 	mov	r5, r1
    5cf4:	e286100c 	add	r1, r6, #12
    5cf8:	eb00023b 	bl	65ec <_malloc_r>
    5cfc:	e2504000 	subs	r4, r0, #0
    5d00:	0a000005 	beq	5d1c <__sfmoreglue+0x3c>
    5d04:	e284000c 	add	r0, r4, #12
    5d08:	e3a01000 	mov	r1, #0
    5d0c:	e8840022 	stm	r4, {r1, r5}
    5d10:	e5840008 	str	r0, [r4, #8]
    5d14:	e1a02006 	mov	r2, r6
    5d18:	eb0004c4 	bl	7030 <memset>
    5d1c:	e1a00004 	mov	r0, r4
    5d20:	e8bd4070 	pop	{r4, r5, r6, lr}
    5d24:	e12fff1e 	bx	lr

00005d28 <_cleanup>:
    5d28:	e59f3004 	ldr	r3, [pc, #4]	; 5d34 <_cleanup+0xc>
    5d2c:	e5930000 	ldr	r0, [r3]
    5d30:	eaffffc5 	b	5c4c <_cleanup_r>
    5d34:	0000becc 	.word	0x0000becc

00005d38 <__sinit>:
    5d38:	e92d4038 	push	{r3, r4, r5, lr}
    5d3c:	e5903038 	ldr	r3, [r0, #56]	; 0x38
    5d40:	e3530000 	cmp	r3, #0
    5d44:	e1a04000 	mov	r4, r0
    5d48:	0a000001 	beq	5d54 <__sinit+0x1c>
    5d4c:	e8bd4038 	pop	{r3, r4, r5, lr}
    5d50:	e12fff1e 	bx	lr
    5d54:	e59fe050 	ldr	lr, [pc, #80]	; 5dac <__sinit+0x74>
    5d58:	e280cfbb 	add	r12, r0, #748	; 0x2ec
    5d5c:	e3a05001 	mov	r5, #1
    5d60:	e1a02003 	mov	r2, r3
    5d64:	e58432e0 	str	r3, [r4, #736]	; 0x2e0
    5d68:	e3a03003 	mov	r3, #3
    5d6c:	e584e03c 	str	lr, [r4, #60]	; 0x3c
    5d70:	e58432e4 	str	r3, [r4, #740]	; 0x2e4
    5d74:	e584c2e8 	str	r12, [r4, #744]	; 0x2e8
    5d78:	e5900004 	ldr	r0, [r0, #4]
    5d7c:	e3a01004 	mov	r1, #4
    5d80:	e5845038 	str	r5, [r4, #56]	; 0x38
